	.section	__TEXT,__text,regular,pure_instructions
	.macosx_version_min 10, 7
	.p2align	4, 0x90
__ZN100_$LT$sigalign..aligner..mode..local..LocalMode$u20$as$u20$sigalign..aligner..mode..AlignmentMode$GT$13run_algorithm17h5d7bfd02dcf9b9e6E:
Lfunc_begin0:
	.file	1 "/Users/khun/Dev/Repos/sigalign" "sigalign/src/aligner/mode/local/mod.rs"
	.loc	1 90 0
	.cfi_startproc
	pushq	%rbp
	.cfi_def_cfa_offset 16
	.cfi_offset %rbp, -16
	movq	%rsp, %rbp
	.cfi_def_cfa_register %rbp
	pushq	%r15
	pushq	%r14
	pushq	%r13
	pushq	%r12
	pushq	%rbx
	subq	$184, %rsp
	.cfi_offset %rbx, -56
	.cfi_offset %r12, -48
	.cfi_offset %r13, -40
	.cfi_offset %r14, -32
	.cfi_offset %r15, -24
	movq	%r9, -136(%rbp)
	movq	%r8, %rax
	movq	-136(%rbp), %r8
	movq	%rax, -128(%rbp)
	movq	%rcx, %rax
	movq	-128(%rbp), %rcx
	movq	%rax, -120(%rbp)
	movq	%rdx, %rax
	movq	-120(%rbp), %rdx
	movq	%rax, -112(%rbp)
	movq	%rsi, %r12
	movq	-112(%rbp), %rsi
	movq	%rdi, %rax
	movq	%rax, -88(%rbp)
	movq	16(%rbp), %rax
	movq	%rax, -104(%rbp)
	movq	%r12, -80(%rbp)
	movq	%rsi, -72(%rbp)
	movq	%rdx, -64(%rbp)
	movq	%rcx, -56(%rbp)
	movq	%r8, -48(%rbp)
Ltmp0:
	.loc	1 101 13 prologue_end
	movl	32(%rax), %r9d
	.loc	1 102 13
	addq	$16, %rax
	.loc	1 104 13
	movq	%r12, %r13
	addq	$96, %r13
	.loc	1 106 13
	movq	%r12, %r15
	addq	$48, %r15
	.loc	1 107 13
	movq	%r12, %r14
	addq	$160, %r14
	.loc	1 108 13
	movq	%r12, %rbx
	addq	$184, %rbx
	.loc	1 109 13
	movq	%r12, %r11
	addq	$208, %r11
	.loc	1 110 13
	movq	%r12, %r10
	addq	$232, %r10
	.loc	1 111 13
	movq	%r12, %rsi
	addq	$256, %rsi
	movq	%rsi, -96(%rbp)
	movq	-112(%rbp), %rsi
	.loc	1 97 9
	movq	%rax, (%rsp)
	movq	-104(%rbp), %rax
	movq	%rax, 8(%rsp)
	movq	-96(%rbp), %rax
	movq	%r13, 16(%rsp)
	movq	%r12, 24(%rsp)
	movq	%r15, 32(%rsp)
	movq	%r14, 40(%rsp)
	movq	%rbx, 48(%rsp)
	movq	%r11, 56(%rsp)
	movq	%r10, 64(%rsp)
	movq	%rax, 72(%rsp)
	callq	__ZN8sigalign9algorithm5local25local_alignment_algorithm17hc5220d0b696843ceE
	movq	-88(%rbp), %rax
	.loc	1 113 6 epilogue_begin
	addq	$184, %rsp
	popq	%rbx
	popq	%r12
	popq	%r13
	popq	%r14
	popq	%r15
	popq	%rbp
	retq
Ltmp1:
Lfunc_end0:
	.cfi_endproc

	.p2align	4, 0x90
__ZN103_$LT$alloc..vec..into_iter..IntoIter$LT$T$C$A$GT$$u20$as$u20$core..iter..traits..iterator..Iterator$GT$4next17h00c5a61083f88b11E:
Lfunc_begin1:
	.file	2 "/rustc/cc66ad468955717ab92600c770da8c1601a4ff33/library/alloc/src/vec" "into_iter.rs"
	.loc	2 188 0
	.cfi_startproc
	pushq	%rbp
	.cfi_def_cfa_offset 16
	.cfi_offset %rbp, -16
	movq	%rsp, %rbp
	.cfi_def_cfa_register %rbp
	subq	$368, %rsp
	movq	%rsi, -360(%rbp)
	movq	%rdi, -352(%rbp)
	movq	%rdi, -344(%rbp)
Ltmp2:
	.file	3 "/rustc/cc66ad468955717ab92600c770da8c1601a4ff33/library/core/src/ptr" "const_ptr.rs"
	.loc	3 1191 42 prologue_end
	movq	$1, -336(%rbp)
Ltmp3:
	.loc	3 1170 37
	movq	$1, -328(%rbp)
Ltmp4:
	.file	4 "/rustc/cc66ad468955717ab92600c770da8c1601a4ff33/library/core/src/num" "mod.rs"
	.loc	4 456 5
	movq	$1, -320(%rbp)
Ltmp5:
	.loc	4 456 5 is_stmt 0
	movq	$0, -312(%rbp)
	movq	$1, -304(%rbp)
Ltmp6:
	.loc	3 543 40 is_stmt 1
	movq	$-1, -296(%rbp)
Ltmp7:
	.file	5 "/rustc/cc66ad468955717ab92600c770da8c1601a4ff33/library/core/src/ptr" "mut_ptr.rs"
	.loc	5 1476 43
	movb	$0, -281(%rbp)
	.loc	5 1476 52 is_stmt 0
	movq	$1, -280(%rbp)
Ltmp8:
	.file	6 "/rustc/cc66ad468955717ab92600c770da8c1601a4ff33/library/core/src" "intrinsics.rs"
	.loc	6 2831 49 is_stmt 1
	movb	$0, -265(%rbp)
	.loc	6 2831 58 is_stmt 0
	movq	$1, -264(%rbp)
Ltmp9:
	.loc	3 918 35 is_stmt 1
	movq	$1, -256(%rbp)
	movq	%rsi, -72(%rbp)
Ltmp10:
	.loc	2 189 12
	movq	16(%rsi), %rax
	cmpq	24(%rsi), %rax
	je	LBB1_2
	.loc	2 191 19
	xorl	%eax, %eax
	testb	$1, %al
	jne	LBB1_4
	jmp	LBB1_3
LBB1_2:
	.loc	2 0 19 is_stmt 0
	movq	-352(%rbp), %rax
	.loc	2 190 13 is_stmt 1
	movq	$0, (%rax)
	.loc	2 189 9
	jmp	LBB1_6
LBB1_3:
	.loc	2 0 9 is_stmt 0
	movq	-352(%rbp), %rax
	movq	-360(%rbp), %rdx
	.loc	2 199 23 is_stmt 1
	movq	16(%rdx), %rcx
	movq	%rcx, -64(%rbp)
Ltmp11:
	.loc	2 200 33
	movq	16(%rdx), %rsi
	movq	%rsi, -56(%rbp)
Ltmp12:
	.loc	3 923 18
	addq	$32, %rsi
Ltmp13:
	.loc	2 200 13
	movq	%rsi, 16(%rdx)
Ltmp14:
	.file	7 "/rustc/cc66ad468955717ab92600c770da8c1601a4ff33/library/core/src/ptr" "mod.rs"
	.loc	7 1180 9
	movq	(%rcx), %rdx
	movq	%rdx, -216(%rbp)
	movq	8(%rcx), %rdx
	movq	%rdx, -208(%rbp)
	movq	16(%rcx), %rdx
	movq	%rdx, -200(%rbp)
	movq	24(%rcx), %rcx
	movq	%rcx, -192(%rbp)
Ltmp15:
	.loc	2 202 13
	movq	-216(%rbp), %rcx
	movq	%rcx, (%rax)
	movq	-208(%rbp), %rcx
	movq	%rcx, 8(%rax)
	movq	-200(%rbp), %rcx
	movq	%rcx, 16(%rax)
	movq	-192(%rbp), %rcx
	movq	%rcx, 24(%rax)
Ltmp16:
	.loc	2 191 16
	jmp	LBB1_5
LBB1_4:
	.loc	2 0 16 is_stmt 0
	movq	-360(%rbp), %rax
	.loc	2 194 24 is_stmt 1
	movq	24(%rax), %rcx
	movq	%rcx, -48(%rbp)
Ltmp17:
	.loc	3 61 9
	movq	%rcx, -40(%rbp)
Ltmp18:
	.loc	3 548 18
	addq	$-1, %rcx
	movq	%rcx, -32(%rbp)
	movq	-32(%rbp), %rcx
	movq	%rcx, -24(%rbp)
Ltmp19:
	.loc	3 100 29
	movq	%rcx, -16(%rbp)
Ltmp20:
	.file	8 "/rustc/cc66ad468955717ab92600c770da8c1601a4ff33/library/core/src/ptr" "metadata.rs"
	.loc	8 118 36
	movq	%rcx, -176(%rbp)
	.loc	8 118 14 is_stmt 0
	movq	-176(%rbp), %rcx
	movq	%rcx, -184(%rbp)
	movq	-184(%rbp), %rcx
Ltmp21:
	.loc	2 194 13 is_stmt 1
	movq	%rcx, 24(%rax)
Ltmp22:
	.file	9 "/rustc/cc66ad468955717ab92600c770da8c1601a4ff33/library/core/src/mem" "mod.rs"
	.loc	9 653 9
	leaq	_str.0(%rip), %rdi
	movl	$85, %esi
	callq	__ZN4core9panicking14panic_nounwind17h24a6aec7406d77faE
Ltmp23:
	.file	10 "/rustc/cc66ad468955717ab92600c770da8c1601a4ff33/library/core/src/mem" "maybe_uninit.rs"
	.loc	10 569 9
	leaq	-136(%rbp), %rax
	movq	%rax, -8(%rbp)
Ltmp24:
	.loc	6 2844 9
	leaq	-136(%rbp), %rdi
	xorl	%esi, %esi
	movl	$32, %edx
	callq	_memset
	movq	-352(%rbp), %rax
Ltmp25:
	.loc	10 401 9
	movq	-136(%rbp), %rcx
	movq	%rcx, -168(%rbp)
	movq	-128(%rbp), %rcx
	movq	%rcx, -160(%rbp)
	movq	-120(%rbp), %rcx
	movq	%rcx, -152(%rbp)
	movq	-112(%rbp), %rcx
	movq	%rcx, -144(%rbp)
Ltmp26:
	.loc	10 627 38
	movq	-168(%rbp), %rcx
	movq	%rcx, -104(%rbp)
	movq	-160(%rbp), %rcx
	movq	%rcx, -96(%rbp)
	movq	-152(%rbp), %rcx
	movq	%rcx, -88(%rbp)
	movq	-144(%rbp), %rcx
	movq	%rcx, -80(%rbp)
Ltmp27:
	.file	11 "/rustc/cc66ad468955717ab92600c770da8c1601a4ff33/library/core/src/mem" "manually_drop.rs"
	.loc	11 89 9
	movq	-104(%rbp), %rcx
	movq	%rcx, -248(%rbp)
	movq	-96(%rbp), %rcx
	movq	%rcx, -240(%rbp)
	movq	-88(%rbp), %rcx
	movq	%rcx, -232(%rbp)
	movq	-80(%rbp), %rcx
	movq	%rcx, -224(%rbp)
Ltmp28:
	.loc	2 197 13
	movq	-248(%rbp), %rcx
	movq	%rcx, (%rax)
	movq	-240(%rbp), %rcx
	movq	%rcx, 8(%rax)
	movq	-232(%rbp), %rcx
	movq	%rcx, 16(%rax)
	movq	-224(%rbp), %rcx
	movq	%rcx, 24(%rax)
LBB1_5:
	.loc	2 189 9
	jmp	LBB1_6
LBB1_6:
	.loc	2 0 9 is_stmt 0
	movq	-344(%rbp), %rax
	.loc	2 204 6 epilogue_begin is_stmt 1
	addq	$368, %rsp
	popq	%rbp
	retq
Ltmp29:
Lfunc_end1:
	.cfi_endproc
	.file	12 "/rustc/cc66ad468955717ab92600c770da8c1601a4ff33/library/core/src/num" "int_macros.rs"

	.p2align	4, 0x90
__ZN103_$LT$alloc..vec..into_iter..IntoIter$LT$T$C$A$GT$$u20$as$u20$core..iter..traits..iterator..Iterator$GT$9size_hint17hba0392c1a34bd35dE:
Lfunc_begin2:
	.loc	2 207 0
	.cfi_startproc
	pushq	%rbp
	.cfi_def_cfa_offset 16
	.cfi_offset %rbp, -16
	movq	%rsp, %rbp
	.cfi_def_cfa_register %rbp
	subq	$144, %rsp
	movq	%rsi, -120(%rbp)
	movq	%rdi, -112(%rbp)
	movq	%rdi, -104(%rbp)
	movq	%rsi, -64(%rbp)
Ltmp30:
	.loc	2 208 24 prologue_end
	xorl	%eax, %eax
	testb	$1, %al
	jne	LBB2_2
	.loc	2 0 24 is_stmt 0
	movq	-120(%rbp), %rax
	.loc	2 211 22 is_stmt 1
	movq	24(%rax), %rcx
	movq	%rcx, -136(%rbp)
	movq	%rcx, -56(%rbp)
	.loc	2 211 39 is_stmt 0
	movq	16(%rax), %rax
	movq	%rax, -128(%rbp)
	movq	%rax, -48(%rbp)
Ltmp31:
	.loc	9 313 5 is_stmt 1
	movq	$32, -40(%rbp)
Ltmp32:
	.loc	3 799 17
	movb	$1, %al
	testb	$1, %al
	jne	LBB2_4
	jmp	LBB2_3
Ltmp33:
LBB2_2:
	.loc	3 0 17 is_stmt 0
	movq	-120(%rbp), %rcx
	.loc	2 209 13 is_stmt 1
	movq	24(%rcx), %rax
	movq	%rax, -32(%rbp)
Ltmp34:
	.loc	3 210 18
	movq	%rax, -24(%rbp)
Ltmp35:
	.loc	2 209 42
	movq	16(%rcx), %rcx
	movq	%rcx, -16(%rbp)
Ltmp36:
	.loc	3 210 18
	movq	%rcx, -8(%rbp)
Ltmp37:
	.loc	4 1267 5
	subq	%rcx, %rax
	movq	%rax, -96(%rbp)
Ltmp38:
	.loc	2 208 21
	jmp	LBB2_8
LBB2_3:
Ltmp39:
	.loc	3 799 17
	movb	$0, -65(%rbp)
	jmp	LBB2_5
LBB2_4:
	movb	$1, -65(%rbp)
LBB2_5:
	.loc	3 799 9 is_stmt 0
	movb	-65(%rbp), %al
	xorb	$-1, %al
	testb	$1, %al
	jne	LBB2_7
	.loc	3 0 9
	movq	-128(%rbp), %rcx
	movq	-136(%rbp), %rax
	.loc	3 801 18 is_stmt 1
	subq	%rcx, %rax
	shrq	$5, %rax
	movq	%rax, -96(%rbp)
Ltmp40:
	.loc	2 208 21
	jmp	LBB2_8
LBB2_7:
Ltmp41:
	.loc	3 799 9
	leaq	l___unnamed_7(%rip), %rdi
	leaq	l___unnamed_8(%rip), %rdx
	movl	$73, %esi
	callq	__ZN4core9panicking5panic17h604fa998dd50d7a6E
Ltmp42:
LBB2_8:
	.loc	3 0 9 is_stmt 0
	movq	-104(%rbp), %rax
	movq	-112(%rbp), %rcx
Ltmp43:
	.loc	2 213 10 is_stmt 1
	movq	-96(%rbp), %rdx
	.loc	2 213 22 is_stmt 0
	movq	-96(%rbp), %rsi
	.loc	2 213 17
	movq	%rsi, -80(%rbp)
	movq	$1, -88(%rbp)
	.loc	2 213 9
	movq	%rdx, (%rcx)
	movq	-88(%rbp), %rsi
	movq	-80(%rbp), %rdx
	movq	%rsi, 8(%rcx)
	movq	%rdx, 16(%rcx)
Ltmp44:
	.loc	2 214 6 epilogue_begin is_stmt 1
	addq	$144, %rsp
	popq	%rbp
	retq
Ltmp45:
Lfunc_end2:
	.cfi_endproc
	.file	13 "/rustc/cc66ad468955717ab92600c770da8c1601a4ff33/library/core/src/num" "uint_macros.rs"

	.p2align	4, 0x90
__ZN104_$LT$core..ops..control_flow..ControlFlow$LT$B$C$C$GT$$u20$as$u20$core..ops..try_trait..FromResidual$GT$13from_residual17h625fc4ccefe55eafE:
Lfunc_begin3:
	.file	14 "/rustc/cc66ad468955717ab92600c770da8c1601a4ff33/library/core/src/ops" "control_flow.rs"
	.loc	14 121 0
	.cfi_startproc
	pushq	%rbp
	.cfi_def_cfa_offset 16
	.cfi_offset %rbp, -16
	movq	%rsp, %rbp
	.cfi_def_cfa_register %rbp
	movq	%rdi, %rax
Ltmp46:
	.loc	14 123 32 prologue_end
	movq	(%rsi), %rcx
	movq	%rcx, -32(%rbp)
	movq	8(%rsi), %rcx
	movq	%rcx, -24(%rbp)
	movq	16(%rsi), %rcx
	movq	%rcx, -16(%rbp)
	movq	24(%rsi), %rcx
	movq	%rcx, -8(%rbp)
Ltmp47:
	.loc	14 123 38 is_stmt 0
	movq	-32(%rbp), %rcx
	movq	%rcx, (%rdi)
	movq	-24(%rbp), %rcx
	movq	%rcx, 8(%rdi)
	movq	-16(%rbp), %rcx
	movq	%rcx, 16(%rdi)
	movq	-8(%rbp), %rcx
	movq	%rcx, 24(%rdi)
Ltmp48:
	.loc	14 125 6 epilogue_begin is_stmt 1
	popq	%rbp
	retq
Ltmp49:
Lfunc_end3:
	.cfi_endproc

	.p2align	4, 0x90
__ZN107_$LT$sigalign..wrapper..aligner..mode..SwitchableMode$u20$as$u20$sigalign..aligner..mode..AlignmentMode$GT$13run_algorithm17h217e841e0f9da322E:
Lfunc_begin4:
	.file	15 "/Users/khun/Dev/Repos/sigalign" "sigalign/src/wrapper/aligner/mode.rs"
	.loc	15 43 0
	.cfi_startproc
	pushq	%rbp
	.cfi_def_cfa_offset 16
	.cfi_offset %rbp, -16
	movq	%rsp, %rbp
	.cfi_def_cfa_register %rbp
	subq	$128, %rsp
	movq	%r9, -120(%rbp)
	movq	%r8, -112(%rbp)
	movq	%rcx, -104(%rbp)
	movq	%rdx, -96(%rbp)
	movq	%rsi, -88(%rbp)
	movq	%rdi, -80(%rbp)
	movq	%rdi, -72(%rbp)
	movq	16(%rbp), %rax
	movq	%rax, -64(%rbp)
	movq	%rsi, -56(%rbp)
	movq	%rdx, -48(%rbp)
	movq	%rcx, -40(%rbp)
	movq	%r8, -32(%rbp)
	movq	%r9, -24(%rbp)
Ltmp50:
	.loc	15 50 15 prologue_end
	xorl	%eax, %eax
	movl	$1, %ecx
	cmpl	$2, (%rsi)
	cmoveq	%rcx, %rax
	.loc	15 50 9 is_stmt 0
	cmpq	$0, %rax
	jne	LBB4_2
	.loc	15 0 9
	movq	-64(%rbp), %rax
	movq	-120(%rbp), %r9
	movq	-112(%rbp), %r8
	movq	-104(%rbp), %rcx
	movq	-96(%rbp), %rdx
	movq	-88(%rbp), %rsi
	movq	-80(%rbp), %rdi
	.loc	15 51 25 is_stmt 1
	movq	%rsi, -16(%rbp)
Ltmp51:
	.loc	15 51 31 is_stmt 0
	movq	%rax, (%rsp)
	callq	__ZN100_$LT$sigalign..aligner..mode..local..LocalMode$u20$as$u20$sigalign..aligner..mode..AlignmentMode$GT$13run_algorithm17h5d7bfd02dcf9b9e6E
	jmp	LBB4_3
Ltmp52:
LBB4_2:
	.loc	15 0 31
	movq	-64(%rbp), %rax
	movq	-120(%rbp), %r9
	movq	-112(%rbp), %r8
	movq	-104(%rbp), %rcx
	movq	-96(%rbp), %rdx
	movq	-80(%rbp), %rdi
	movq	-88(%rbp), %rsi
	.loc	15 57 30 is_stmt 1
	addq	$8, %rsi
	movq	%rsi, -8(%rbp)
Ltmp53:
	.loc	15 57 36 is_stmt 0
	movq	%rax, (%rsp)
	callq	__ZN111_$LT$sigalign..aligner..mode..semi_global..SemiGlobalMode$u20$as$u20$sigalign..aligner..mode..AlignmentMode$GT$13run_algorithm17he42ecc22daa9a987E
Ltmp54:
LBB4_3:
	.loc	15 0 36
	movq	-72(%rbp), %rax
	.loc	15 64 6 epilogue_begin is_stmt 1
	addq	$128, %rsp
	popq	%rbp
	retq
Ltmp55:
Lfunc_end4:
	.cfi_endproc

	.p2align	4, 0x90
__ZN108_$LT$std..collections..hash..map..IterMut$LT$K$C$V$GT$$u20$as$u20$core..iter..traits..iterator..Iterator$GT$4next17hed696404cdd154dcE:
Lfunc_begin5:
	.file	16 "/rustc/cc66ad468955717ab92600c770da8c1601a4ff33/library/std/src/collections/hash" "map.rs"
	.loc	16 2255 0
	.cfi_startproc
	pushq	%rbp
	.cfi_def_cfa_offset 16
	.cfi_offset %rbp, -16
	movq	%rsp, %rbp
	.cfi_def_cfa_register %rbp
	subq	$16, %rsp
	movq	%rdi, -8(%rbp)
Ltmp56:
	.loc	16 2256 9 prologue_end
	callq	__ZN95_$LT$hashbrown..map..IterMut$LT$K$C$V$GT$$u20$as$u20$core..iter..traits..iterator..Iterator$GT$4next17he13a7e52d1c085f5E
	.loc	16 2257 6 epilogue_begin
	addq	$16, %rsp
	popq	%rbp
	retq
Ltmp57:
Lfunc_end5:
	.cfi_endproc

	.p2align	4, 0x90
__ZN108_$LT$std..collections..hash..map..IterMut$LT$K$C$V$GT$$u20$as$u20$core..iter..traits..iterator..Iterator$GT$9size_hint17he052462ea6bbb6b2E:
Lfunc_begin6:
	.loc	16 2259 0
	.cfi_startproc
	pushq	%rbp
	.cfi_def_cfa_offset 16
	.cfi_offset %rbp, -16
	movq	%rsp, %rbp
	.cfi_def_cfa_register %rbp
	movq	%rdi, %rax
	movq	%rsi, -8(%rbp)
Ltmp58:
	.file	17 "/Users/runner/.cargo/registry/src/index.crates.io-6f17d22bba15001f/hashbrown-0.14.0/src/raw" "mod.rs"
	.loc	17 3062 10 prologue_end
	movq	32(%rsi), %rcx
	.loc	17 3062 27 is_stmt 0
	movq	32(%rsi), %rdx
	.loc	17 3062 22
	movq	%rdx, -16(%rbp)
	movq	$1, -24(%rbp)
	.loc	17 3062 9
	movq	%rcx, (%rdi)
	movq	-24(%rbp), %rdx
	movq	-16(%rbp), %rcx
	movq	%rdx, 8(%rdi)
	movq	%rcx, 16(%rdi)
Ltmp59:
	.loc	16 2261 6 epilogue_begin is_stmt 1
	popq	%rbp
	retq
Ltmp60:
Lfunc_end6:
	.cfi_endproc
	.file	18 "/Users/runner/.cargo/registry/src/index.crates.io-6f17d22bba15001f/hashbrown-0.14.0/src" "map.rs"

	.p2align	4, 0x90
__ZN111_$LT$alloc..vec..Vec$LT$T$GT$$u20$as$u20$alloc..vec..spec_from_iter_nested..SpecFromIterNested$LT$T$C$I$GT$$GT$9from_iter17h01909dfda0783873E:
Lfunc_begin7:
	.file	19 "/rustc/cc66ad468955717ab92600c770da8c1601a4ff33/library/alloc/src/vec" "spec_from_iter_nested.rs"
	.loc	19 20 0
	.cfi_startproc
	.cfi_personality 155, _rust_eh_personality
	.cfi_lsda 16, Lexception0
	pushq	%rbp
	.cfi_def_cfa_offset 16
	.cfi_offset %rbp, -16
	movq	%rsp, %rbp
	.cfi_def_cfa_register %rbp
	subq	$496, %rsp
	movq	%rsi, -464(%rbp)
Ltmp79:
	movq	%rdi, -456(%rbp)
	movq	%rdi, -448(%rbp)
Ltmp80:
	.loc	4 1267 5 prologue_end
	movq	$1, -440(%rbp)
Ltmp81:
	.file	20 "/rustc/cc66ad468955717ab92600c770da8c1601a4ff33/library/core/src" "cmp.rs"
	.loc	20 1218 20
	movq	$4, -432(%rbp)
Ltmp82:
	.loc	20 790 12
	movq	$4, -424(%rbp)
Ltmp83:
	.file	21 "/rustc/cc66ad468955717ab92600c770da8c1601a4ff33/library/alloc/src/vec" "mod.rs"
	.loc	21 1363 38
	movq	$1, -408(%rbp)
Ltmp84:
	.loc	19 26 13
	movb	$1, -73(%rbp)
Ltmp61:
	leaq	-376(%rbp), %rdi
	.loc	19 26 32 is_stmt 0
	callq	__ZN115_$LT$core..iter..adapters..filter_map..FilterMap$LT$I$C$F$GT$$u20$as$u20$core..iter..traits..iterator..Iterator$GT$4next17h5f6e285e57f2e7feE
Ltmp85:
Ltmp62:
	jmp	LBB7_3
Ltmp86:
LBB7_1:
	.loc	19 45 5 is_stmt 1
	testb	$1, -73(%rbp)
	jne	LBB7_18
	jmp	LBB7_17
Ltmp87:
LBB7_2:
Ltmp63:
	.loc	19 0 5 is_stmt 0
	movq	%rax, %rcx
	movl	%edx, %eax
	movq	%rcx, -72(%rbp)
	movl	%eax, -64(%rbp)
	jmp	LBB7_1
Ltmp88:
LBB7_3:
	.loc	19 26 32 is_stmt 1
	movq	-376(%rbp), %rdx
	movl	$1, %eax
	xorl	%ecx, %ecx
	cmpq	$0, %rdx
	cmoveq	%rcx, %rax
	.loc	19 26 26 is_stmt 0
	cmpq	$0, %rax
	jne	LBB7_5
Ltmp89:
	.loc	19 0 26
	movq	-456(%rbp), %rax
Ltmp90:
	.loc	21 421 9 is_stmt 1
	movl	$8, %ecx
	movq	%rcx, (%rax)
	movq	$0, 8(%rax)
	movq	$0, 16(%rax)
Ltmp91:
	.loc	19 45 5
	jmp	LBB7_6
Ltmp92:
LBB7_5:
	.loc	19 0 5 is_stmt 0
	movq	-464(%rbp), %rsi
	.loc	19 28 18 is_stmt 1
	movq	-352(%rbp), %rax
	movq	%rax, -320(%rbp)
	movq	-360(%rbp), %rax
	movq	%rax, -328(%rbp)
	movq	-376(%rbp), %rax
	movq	-368(%rbp), %rcx
	movq	%rcx, -336(%rbp)
	movq	%rax, -344(%rbp)
Ltmp64:
	leaq	-312(%rbp), %rdi
Ltmp93:
	.loc	19 29 34
	callq	__ZN115_$LT$core..iter..adapters..filter_map..FilterMap$LT$I$C$F$GT$$u20$as$u20$core..iter..traits..iterator..Iterator$GT$9size_hint17h4ab7e464ca2c9ca9E
Ltmp65:
	jmp	LBB7_9
Ltmp94:
LBB7_6:
	.loc	19 0 34 is_stmt 0
	movq	-448(%rbp), %rax
	.loc	19 45 6 epilogue_begin is_stmt 1
	addq	$496, %rsp
	popq	%rbp
	retq
Ltmp95:
LBB7_7:
	.loc	19 39 13
	movb	$1, %al
	testb	$1, %al
	jne	LBB7_16
	jmp	LBB7_1
Ltmp96:
LBB7_8:
Ltmp70:
	.loc	19 0 13 is_stmt 0
	movq	%rax, %rcx
	movl	%edx, %eax
	movq	%rcx, -72(%rbp)
	movl	%eax, -64(%rbp)
	jmp	LBB7_7
Ltmp97:
LBB7_9:
	.loc	19 29 22 is_stmt 1
	movq	-312(%rbp), %rax
	movq	%rax, -56(%rbp)
Ltmp98:
	.loc	4 1267 5
	incq	%rax
	movq	$-1, %rcx
	cmoveq	%rcx, %rax
	movq	%rax, -48(%rbp)
	movq	-48(%rbp), %rsi
	movq	%rsi, -40(%rbp)
Ltmp66:
	movl	$4, %edi
Ltmp99:
	.loc	20 794 9
	callq	__ZN4core3cmp6max_by17h9730543b5f9eb76cE
Ltmp67:
	movq	%rax, -472(%rbp)
	jmp	LBB7_10
Ltmp100:
LBB7_10:
	.loc	20 0 9 is_stmt 0
	movq	-472(%rbp), %rdi
	.loc	20 794 9
	movq	%rdi, -32(%rbp)
Ltmp101:
	.loc	19 32 53 is_stmt 1
	movq	%rdi, -24(%rbp)
Ltmp68:
	xorl	%esi, %esi
Ltmp102:
	.file	22 "/rustc/cc66ad468955717ab92600c770da8c1601a4ff33/library/alloc/src" "raw_vec.rs"
	.loc	22 130 9
	callq	__ZN5alloc7raw_vec19RawVec$LT$T$C$A$GT$11allocate_in17ha32b47941f5debd2E
Ltmp69:
	movq	%rdx, -488(%rbp)
	movq	%rax, -480(%rbp)
	jmp	LBB7_11
Ltmp103:
LBB7_11:
	.loc	22 0 9 is_stmt 0
	movq	-464(%rbp), %rsi
	movq	-488(%rbp), %rax
	movq	-480(%rbp), %rcx
	.loc	21 670 9 is_stmt 1
	movq	%rcx, -288(%rbp)
	movq	%rax, -280(%rbp)
	movq	$0, -272(%rbp)
Ltmp104:
	.loc	22 223 9
	movq	-288(%rbp), %rax
	movq	%rax, -16(%rbp)
Ltmp105:
	.file	23 "/rustc/cc66ad468955717ab92600c770da8c1601a4ff33/library/core/src/ptr" "non_null.rs"
	.loc	23 326 9
	movq	%rax, -8(%rbp)
Ltmp106:
	.loc	19 35 53
	movq	-320(%rbp), %rcx
	movq	%rcx, -240(%rbp)
	movq	-328(%rbp), %rcx
	movq	%rcx, -248(%rbp)
	movq	-344(%rbp), %rcx
	movq	-336(%rbp), %rdx
	movq	%rdx, -256(%rbp)
	movq	%rcx, -264(%rbp)
Ltmp107:
	.loc	7 1378 9
	movq	-240(%rbp), %rcx
	movq	%rcx, 24(%rax)
	movq	-248(%rbp), %rcx
	movq	%rcx, 16(%rax)
	movq	-264(%rbp), %rcx
	movq	-256(%rbp), %rdx
	movq	%rdx, 8(%rax)
	movq	%rcx, (%rax)
Ltmp108:
	.loc	21 1366 9
	movq	$1, -272(%rbp)
Ltmp109:
	.loc	19 38 17
	movq	-272(%rbp), %rax
	movq	%rax, -384(%rbp)
	movq	-288(%rbp), %rax
	movq	-280(%rbp), %rcx
	movq	%rcx, -392(%rbp)
	movq	%rax, -400(%rbp)
Ltmp110:
	.loc	19 43 64
	movb	$0, -73(%rbp)
	leaq	-232(%rbp), %rdi
	movq	%rdi, -496(%rbp)
	movl	$152, %edx
	callq	_memcpy
	movq	-496(%rbp), %rsi
Ltmp73:
	leaq	-400(%rbp), %rdi
	.loc	19 43 9 is_stmt 0
	callq	__ZN97_$LT$alloc..vec..Vec$LT$T$C$A$GT$$u20$as$u20$alloc..vec..spec_extend..SpecExtend$LT$T$C$I$GT$$GT$11spec_extend17h56f949a019f628b3E
Ltmp74:
	jmp	LBB7_14
Ltmp111:
LBB7_12:
Ltmp76:
	.loc	19 0 9
	leaq	-400(%rbp), %rdi
	.loc	19 45 5 is_stmt 1
	callq	__ZN4core3ptr84drop_in_place$LT$alloc..vec..Vec$LT$sigalign..results..TargetAlignmentResult$GT$$GT$17h12a8a52b6eedda13E
Ltmp77:
	jmp	LBB7_1
Ltmp112:
LBB7_13:
Ltmp75:
	.loc	19 0 5 is_stmt 0
	movq	%rax, %rcx
	movl	%edx, %eax
	movq	%rcx, -72(%rbp)
	movl	%eax, -64(%rbp)
	jmp	LBB7_12
Ltmp113:
LBB7_14:
	movq	-456(%rbp), %rax
Ltmp114:
	.loc	19 44 9 is_stmt 1
	movq	-400(%rbp), %rcx
	movq	%rcx, (%rax)
	movq	-392(%rbp), %rcx
	movq	%rcx, 8(%rax)
	movq	-384(%rbp), %rcx
	movq	%rcx, 16(%rax)
Ltmp115:
	.loc	19 45 5
	jmp	LBB7_6
Ltmp116:
LBB7_15:
Ltmp78:
	.loc	19 20 5
	callq	__ZN4core9panicking19panic_cannot_unwind17h0477e80cce5de375E
Ltmp117:
LBB7_16:
Ltmp71:
	.loc	19 0 5 is_stmt 0
	leaq	-344(%rbp), %rdi
	.loc	19 39 13 is_stmt 1
	callq	__ZN4core3ptr61drop_in_place$LT$sigalign..results..TargetAlignmentResult$GT$17h958ce2b0ac89169cE
Ltmp72:
	jmp	LBB7_1
Ltmp118:
LBB7_17:
	.loc	19 20 5
	movq	-72(%rbp), %rdi
	callq	__Unwind_Resume
Ltmp119:
LBB7_18:
	.loc	19 45 5
	jmp	LBB7_17
Ltmp120:
Lfunc_end7:
	.cfi_endproc
	.file	24 "/rustc/cc66ad468955717ab92600c770da8c1601a4ff33/library/core/src/ptr" "unique.rs"
	.section	__TEXT,__gcc_except_tab
	.p2align	2, 0x0
GCC_except_table7:
Lexception0:
	.byte	255
	.byte	155
	.uleb128 Lttbase0-Lttbaseref0
Lttbaseref0:
	.byte	1
	.uleb128 Lcst_end0-Lcst_begin0
Lcst_begin0:
	.uleb128 Ltmp61-Lfunc_begin7
	.uleb128 Ltmp62-Ltmp61
	.uleb128 Ltmp63-Lfunc_begin7
	.byte	0
	.uleb128 Ltmp64-Lfunc_begin7
	.uleb128 Ltmp69-Ltmp64
	.uleb128 Ltmp70-Lfunc_begin7
	.byte	0
	.uleb128 Ltmp69-Lfunc_begin7
	.uleb128 Ltmp73-Ltmp69
	.byte	0
	.byte	0
	.uleb128 Ltmp73-Lfunc_begin7
	.uleb128 Ltmp74-Ltmp73
	.uleb128 Ltmp75-Lfunc_begin7
	.byte	0
	.uleb128 Ltmp76-Lfunc_begin7
	.uleb128 Ltmp72-Ltmp76
	.uleb128 Ltmp78-Lfunc_begin7
	.byte	1
	.uleb128 Ltmp72-Lfunc_begin7
	.uleb128 Lfunc_end7-Ltmp72
	.byte	0
	.byte	0
Lcst_end0:
	.byte	127
	.byte	0
	.p2align	2, 0x0
Lttbase0:
	.byte	0
	.p2align	2, 0x0

	.section	__TEXT,__text,regular,pure_instructions
	.p2align	4, 0x90
__ZN111_$LT$alloc..vec..Vec$LT$T$GT$$u20$as$u20$alloc..vec..spec_from_iter_nested..SpecFromIterNested$LT$T$C$I$GT$$GT$9from_iter17ha835bec8c9b8ecc0E:
Lfunc_begin8:
	.loc	19 20 0
	.cfi_startproc
	.cfi_personality 155, _rust_eh_personality
	.cfi_lsda 16, Lexception1
	pushq	%rbp
	.cfi_def_cfa_offset 16
	.cfi_offset %rbp, -16
	movq	%rsp, %rbp
	.cfi_def_cfa_register %rbp
	subq	$480, %rsp
	movq	%rsi, -448(%rbp)
Ltmp139:
	movq	%rdi, -440(%rbp)
	movq	%rdi, -432(%rbp)
Ltmp140:
	.loc	4 1267 5 prologue_end
	movq	$1, -424(%rbp)
Ltmp141:
	.loc	20 1218 20
	movq	$4, -416(%rbp)
Ltmp142:
	.loc	20 790 12
	movq	$4, -408(%rbp)
Ltmp143:
	.loc	21 1363 38
	movq	$1, -392(%rbp)
Ltmp144:
	.loc	19 26 13
	movb	$1, -73(%rbp)
Ltmp121:
	leaq	-360(%rbp), %rdi
	.loc	19 26 32 is_stmt 0
	callq	__ZN115_$LT$core..iter..adapters..filter_map..FilterMap$LT$I$C$F$GT$$u20$as$u20$core..iter..traits..iterator..Iterator$GT$4next17hef6f3ea3014c957bE
Ltmp145:
Ltmp122:
	jmp	LBB8_3
Ltmp146:
LBB8_1:
	.loc	19 45 5 is_stmt 1
	testb	$1, -73(%rbp)
	jne	LBB8_18
	jmp	LBB8_17
Ltmp147:
LBB8_2:
Ltmp123:
	.loc	19 0 5 is_stmt 0
	movq	%rax, %rcx
	movl	%edx, %eax
	movq	%rcx, -72(%rbp)
	movl	%eax, -64(%rbp)
	jmp	LBB8_1
Ltmp148:
LBB8_3:
	.loc	19 26 32 is_stmt 1
	movq	-360(%rbp), %rdx
	movl	$1, %eax
	xorl	%ecx, %ecx
	cmpq	$0, %rdx
	cmoveq	%rcx, %rax
	.loc	19 26 26 is_stmt 0
	cmpq	$0, %rax
	jne	LBB8_5
Ltmp149:
	.loc	19 0 26
	movq	-440(%rbp), %rax
Ltmp150:
	.loc	21 421 9 is_stmt 1
	movl	$8, %ecx
	movq	%rcx, (%rax)
	movq	$0, 8(%rax)
	movq	$0, 16(%rax)
Ltmp151:
	.loc	19 45 5
	jmp	LBB8_6
Ltmp152:
LBB8_5:
	.loc	19 0 5 is_stmt 0
	movq	-448(%rbp), %rsi
	.loc	19 28 18 is_stmt 1
	movq	-336(%rbp), %rax
	movq	%rax, -304(%rbp)
	movq	-344(%rbp), %rax
	movq	%rax, -312(%rbp)
	movq	-360(%rbp), %rax
	movq	-352(%rbp), %rcx
	movq	%rcx, -320(%rbp)
	movq	%rax, -328(%rbp)
Ltmp124:
	leaq	-296(%rbp), %rdi
Ltmp153:
	.loc	19 29 34
	callq	__ZN115_$LT$core..iter..adapters..filter_map..FilterMap$LT$I$C$F$GT$$u20$as$u20$core..iter..traits..iterator..Iterator$GT$9size_hint17ha868cb9598d75677E
Ltmp125:
	jmp	LBB8_9
Ltmp154:
LBB8_6:
	.loc	19 0 34 is_stmt 0
	movq	-432(%rbp), %rax
	.loc	19 45 6 epilogue_begin is_stmt 1
	addq	$480, %rsp
	popq	%rbp
	retq
Ltmp155:
LBB8_7:
	.loc	19 39 13
	movb	$1, %al
	testb	$1, %al
	jne	LBB8_16
	jmp	LBB8_1
Ltmp156:
LBB8_8:
Ltmp130:
	.loc	19 0 13 is_stmt 0
	movq	%rax, %rcx
	movl	%edx, %eax
	movq	%rcx, -72(%rbp)
	movl	%eax, -64(%rbp)
	jmp	LBB8_7
Ltmp157:
LBB8_9:
	.loc	19 29 22 is_stmt 1
	movq	-296(%rbp), %rax
	movq	%rax, -56(%rbp)
Ltmp158:
	.loc	4 1267 5
	incq	%rax
	movq	$-1, %rcx
	cmoveq	%rcx, %rax
	movq	%rax, -48(%rbp)
	movq	-48(%rbp), %rsi
	movq	%rsi, -40(%rbp)
Ltmp126:
	movl	$4, %edi
Ltmp159:
	.loc	20 794 9
	callq	__ZN4core3cmp6max_by17h9730543b5f9eb76cE
Ltmp127:
	movq	%rax, -456(%rbp)
	jmp	LBB8_10
Ltmp160:
LBB8_10:
	.loc	20 0 9 is_stmt 0
	movq	-456(%rbp), %rdi
	.loc	20 794 9
	movq	%rdi, -32(%rbp)
Ltmp161:
	.loc	19 32 53 is_stmt 1
	movq	%rdi, -24(%rbp)
Ltmp128:
	xorl	%esi, %esi
Ltmp162:
	.loc	22 130 9
	callq	__ZN5alloc7raw_vec19RawVec$LT$T$C$A$GT$11allocate_in17ha32b47941f5debd2E
Ltmp129:
	movq	%rdx, -472(%rbp)
	movq	%rax, -464(%rbp)
	jmp	LBB8_11
Ltmp163:
LBB8_11:
	.loc	22 0 9 is_stmt 0
	movq	-448(%rbp), %rsi
	movq	-472(%rbp), %rax
	movq	-464(%rbp), %rcx
	.loc	21 670 9 is_stmt 1
	movq	%rcx, -272(%rbp)
	movq	%rax, -264(%rbp)
	movq	$0, -256(%rbp)
Ltmp164:
	.loc	22 223 9
	movq	-272(%rbp), %rax
	movq	%rax, -16(%rbp)
Ltmp165:
	.loc	23 326 9
	movq	%rax, -8(%rbp)
Ltmp166:
	.loc	19 35 53
	movq	-304(%rbp), %rcx
	movq	%rcx, -224(%rbp)
	movq	-312(%rbp), %rcx
	movq	%rcx, -232(%rbp)
	movq	-328(%rbp), %rcx
	movq	-320(%rbp), %rdx
	movq	%rdx, -240(%rbp)
	movq	%rcx, -248(%rbp)
Ltmp167:
	.loc	7 1378 9
	movq	-224(%rbp), %rcx
	movq	%rcx, 24(%rax)
	movq	-232(%rbp), %rcx
	movq	%rcx, 16(%rax)
	movq	-248(%rbp), %rcx
	movq	-240(%rbp), %rdx
	movq	%rdx, 8(%rax)
	movq	%rcx, (%rax)
Ltmp168:
	.loc	21 1366 9
	movq	$1, -256(%rbp)
Ltmp169:
	.loc	19 38 17
	movq	-256(%rbp), %rax
	movq	%rax, -368(%rbp)
	movq	-272(%rbp), %rax
	movq	-264(%rbp), %rcx
	movq	%rcx, -376(%rbp)
	movq	%rax, -384(%rbp)
Ltmp170:
	.loc	19 43 64
	movb	$0, -73(%rbp)
	leaq	-216(%rbp), %rdi
	movq	%rdi, -480(%rbp)
	movl	$136, %edx
	callq	_memcpy
	movq	-480(%rbp), %rsi
Ltmp133:
	leaq	-384(%rbp), %rdi
	.loc	19 43 9 is_stmt 0
	callq	__ZN97_$LT$alloc..vec..Vec$LT$T$C$A$GT$$u20$as$u20$alloc..vec..spec_extend..SpecExtend$LT$T$C$I$GT$$GT$11spec_extend17h963d9cd6484fcce3E
Ltmp134:
	jmp	LBB8_14
Ltmp171:
LBB8_12:
Ltmp136:
	.loc	19 0 9
	leaq	-384(%rbp), %rdi
	.loc	19 45 5 is_stmt 1
	callq	__ZN4core3ptr84drop_in_place$LT$alloc..vec..Vec$LT$sigalign..results..TargetAlignmentResult$GT$$GT$17h12a8a52b6eedda13E
Ltmp137:
	jmp	LBB8_1
Ltmp172:
LBB8_13:
Ltmp135:
	.loc	19 0 5 is_stmt 0
	movq	%rax, %rcx
	movl	%edx, %eax
	movq	%rcx, -72(%rbp)
	movl	%eax, -64(%rbp)
	jmp	LBB8_12
Ltmp173:
LBB8_14:
	movq	-440(%rbp), %rax
Ltmp174:
	.loc	19 44 9 is_stmt 1
	movq	-384(%rbp), %rcx
	movq	%rcx, (%rax)
	movq	-376(%rbp), %rcx
	movq	%rcx, 8(%rax)
	movq	-368(%rbp), %rcx
	movq	%rcx, 16(%rax)
Ltmp175:
	.loc	19 45 5
	jmp	LBB8_6
Ltmp176:
LBB8_15:
Ltmp138:
	.loc	19 20 5
	callq	__ZN4core9panicking19panic_cannot_unwind17h0477e80cce5de375E
Ltmp177:
LBB8_16:
Ltmp131:
	.loc	19 0 5 is_stmt 0
	leaq	-328(%rbp), %rdi
	.loc	19 39 13 is_stmt 1
	callq	__ZN4core3ptr61drop_in_place$LT$sigalign..results..TargetAlignmentResult$GT$17h958ce2b0ac89169cE
Ltmp132:
	jmp	LBB8_1
Ltmp178:
LBB8_17:
	.loc	19 20 5
	movq	-72(%rbp), %rdi
	callq	__Unwind_Resume
Ltmp179:
LBB8_18:
	.loc	19 45 5
	jmp	LBB8_17
Ltmp180:
Lfunc_end8:
	.cfi_endproc
	.section	__TEXT,__gcc_except_tab
	.p2align	2, 0x0
GCC_except_table8:
Lexception1:
	.byte	255
	.byte	155
	.uleb128 Lttbase1-Lttbaseref1
Lttbaseref1:
	.byte	1
	.uleb128 Lcst_end1-Lcst_begin1
Lcst_begin1:
	.uleb128 Ltmp121-Lfunc_begin8
	.uleb128 Ltmp122-Ltmp121
	.uleb128 Ltmp123-Lfunc_begin8
	.byte	0
	.uleb128 Ltmp124-Lfunc_begin8
	.uleb128 Ltmp129-Ltmp124
	.uleb128 Ltmp130-Lfunc_begin8
	.byte	0
	.uleb128 Ltmp129-Lfunc_begin8
	.uleb128 Ltmp133-Ltmp129
	.byte	0
	.byte	0
	.uleb128 Ltmp133-Lfunc_begin8
	.uleb128 Ltmp134-Ltmp133
	.uleb128 Ltmp135-Lfunc_begin8
	.byte	0
	.uleb128 Ltmp136-Lfunc_begin8
	.uleb128 Ltmp132-Ltmp136
	.uleb128 Ltmp138-Lfunc_begin8
	.byte	1
	.uleb128 Ltmp132-Lfunc_begin8
	.uleb128 Lfunc_end8-Ltmp132
	.byte	0
	.byte	0
Lcst_end1:
	.byte	127
	.byte	0
	.p2align	2, 0x0
Lttbase1:
	.byte	0
	.p2align	2, 0x0

	.section	__TEXT,__text,regular,pure_instructions
	.p2align	4, 0x90
__ZN111_$LT$sigalign..aligner..mode..semi_global..SemiGlobalMode$u20$as$u20$sigalign..aligner..mode..AlignmentMode$GT$13run_algorithm17he42ecc22daa9a987E:
Lfunc_begin9:
	.file	25 "/Users/khun/Dev/Repos/sigalign" "sigalign/src/aligner/mode/semi_global/mod.rs"
	.loc	25 81 0
	.cfi_startproc
	pushq	%rbp
	.cfi_def_cfa_offset 16
	.cfi_offset %rbp, -16
	movq	%rsp, %rbp
	.cfi_def_cfa_register %rbp
	pushq	%r15
	pushq	%r14
	pushq	%r12
	pushq	%rbx
	subq	$144, %rsp
	.cfi_offset %rbx, -48
	.cfi_offset %r12, -40
	.cfi_offset %r14, -32
	.cfi_offset %r15, -24
	movq	%r9, -112(%rbp)
	movq	%r8, %rax
	movq	-112(%rbp), %r8
	movq	%rax, -104(%rbp)
	movq	%rcx, %rax
	movq	-104(%rbp), %rcx
	movq	%rax, -96(%rbp)
	movq	%rdx, %rax
	movq	-96(%rbp), %rdx
	movq	%rax, -88(%rbp)
	movq	%rsi, %rbx
	movq	-88(%rbp), %rsi
	movq	%rdi, %rax
	movq	%rax, -80(%rbp)
	movq	16(%rbp), %r15
	movq	%rbx, -72(%rbp)
	movq	%rsi, -64(%rbp)
	movq	%rdx, -56(%rbp)
	movq	%rcx, -48(%rbp)
	movq	%r8, -40(%rbp)
Ltmp181:
	.loc	25 92 13 prologue_end
	movl	32(%r15), %r9d
	.loc	25 93 13
	movq	%r15, %r12
	addq	$16, %r12
	.loc	25 95 13
	movq	%rbx, %r14
	addq	$48, %r14
	.loc	25 97 13
	movq	%rbx, %r11
	addq	$112, %r11
	.loc	25 98 13
	movq	%rbx, %r10
	addq	$136, %r10
	.loc	25 99 13
	movq	%rbx, %rax
	addq	$160, %rax
	.loc	25 88 9
	movq	%r12, (%rsp)
	movq	%r15, 8(%rsp)
	movq	%r14, 16(%rsp)
	movq	%rbx, 24(%rsp)
	movq	%r11, 32(%rsp)
	movq	%r10, 40(%rsp)
	movq	%rax, 48(%rsp)
	callq	__ZN8sigalign9algorithm11semi_global31semi_global_alignment_algorithm17h9ab633385e516da0E
	movq	-80(%rbp), %rax
	.loc	25 101 6 epilogue_begin
	addq	$144, %rsp
	popq	%rbx
	popq	%r12
	popq	%r14
	popq	%r15
	popq	%rbp
	retq
Ltmp182:
Lfunc_end9:
	.cfi_endproc

	.p2align	4, 0x90
__ZN115_$LT$core..iter..adapters..filter_map..FilterMap$LT$I$C$F$GT$$u20$as$u20$core..iter..traits..iterator..Iterator$GT$4next17h5f6e285e57f2e7feE:
Lfunc_begin10:
	.file	26 "/rustc/cc66ad468955717ab92600c770da8c1601a4ff33/library/core/src/iter/adapters" "filter_map.rs"
	.loc	26 61 0
	.cfi_startproc
	pushq	%rbp
	.cfi_def_cfa_offset 16
	.cfi_offset %rbp, -16
	movq	%rsp, %rbp
	.cfi_def_cfa_register %rbp
	subq	$16, %rsp
	movq	%rdi, %rax
	movq	%rax, -16(%rbp)
	movq	%rsi, -8(%rbp)
Ltmp183:
	.loc	26 62 28 prologue_end
	movq	%rsi, %rdx
	addq	$40, %rdx
	.loc	26 62 9 is_stmt 0
	callq	__ZN4core4iter6traits8iterator8Iterator8find_map17h12de1dbd149a743fE
	movq	-16(%rbp), %rax
	.loc	26 63 6 epilogue_begin is_stmt 1
	addq	$16, %rsp
	popq	%rbp
	retq
Ltmp184:
Lfunc_end10:
	.cfi_endproc

	.p2align	4, 0x90
__ZN115_$LT$core..iter..adapters..filter_map..FilterMap$LT$I$C$F$GT$$u20$as$u20$core..iter..traits..iterator..Iterator$GT$4next17hef6f3ea3014c957bE:
Lfunc_begin11:
	.loc	26 61 0
	.cfi_startproc
	pushq	%rbp
	.cfi_def_cfa_offset 16
	.cfi_offset %rbp, -16
	movq	%rsp, %rbp
	.cfi_def_cfa_register %rbp
	subq	$16, %rsp
	movq	%rdi, %rax
	movq	%rax, -16(%rbp)
	movq	%rsi, -8(%rbp)
Ltmp185:
	.loc	26 62 28 prologue_end
	movq	%rsi, %rdx
	addq	$40, %rdx
	.loc	26 62 9 is_stmt 0
	callq	__ZN4core4iter6traits8iterator8Iterator8find_map17h766ffe2aa050444dE
	movq	-16(%rbp), %rax
	.loc	26 63 6 epilogue_begin is_stmt 1
	addq	$16, %rsp
	popq	%rbp
	retq
Ltmp186:
Lfunc_end11:
	.cfi_endproc

	.p2align	4, 0x90
__ZN115_$LT$core..iter..adapters..filter_map..FilterMap$LT$I$C$F$GT$$u20$as$u20$core..iter..traits..iterator..Iterator$GT$9size_hint17h4ab7e464ca2c9ca9E:
Lfunc_begin12:
	.loc	26 125 0
	.cfi_startproc
	pushq	%rbp
	.cfi_def_cfa_offset 16
	.cfi_offset %rbp, -16
	movq	%rsp, %rbp
	.cfi_def_cfa_register %rbp
	subq	$64, %rsp
	movq	%rdi, -64(%rbp)
	movq	%rdi, -56(%rbp)
	movq	%rsi, -24(%rbp)
Ltmp187:
	.loc	26 126 26 prologue_end
	leaq	-48(%rbp), %rdi
	callq	__ZN108_$LT$std..collections..hash..map..IterMut$LT$K$C$V$GT$$u20$as$u20$core..iter..traits..iterator..Iterator$GT$9size_hint17he052462ea6bbb6b2E
	movq	-64(%rbp), %rdi
	movq	-56(%rbp), %rax
	.loc	26 126 17 is_stmt 0
	movq	-40(%rbp), %rdx
	movq	-32(%rbp), %rcx
	movq	%rdx, -16(%rbp)
	movq	%rcx, -8(%rbp)
Ltmp188:
	.loc	26 127 9 is_stmt 1
	movq	$0, (%rdi)
	movq	%rdx, 8(%rdi)
	movq	%rcx, 16(%rdi)
Ltmp189:
	.loc	26 128 6 epilogue_begin
	addq	$64, %rsp
	popq	%rbp
	retq
Ltmp190:
Lfunc_end12:
	.cfi_endproc

	.p2align	4, 0x90
__ZN115_$LT$core..iter..adapters..filter_map..FilterMap$LT$I$C$F$GT$$u20$as$u20$core..iter..traits..iterator..Iterator$GT$9size_hint17ha868cb9598d75677E:
Lfunc_begin13:
	.loc	26 125 0
	.cfi_startproc
	pushq	%rbp
	.cfi_def_cfa_offset 16
	.cfi_offset %rbp, -16
	movq	%rsp, %rbp
	.cfi_def_cfa_register %rbp
	subq	$64, %rsp
	movq	%rdi, -64(%rbp)
	movq	%rdi, -56(%rbp)
	movq	%rsi, -24(%rbp)
Ltmp191:
	.loc	26 126 26 prologue_end
	leaq	-48(%rbp), %rdi
	callq	__ZN108_$LT$std..collections..hash..map..IterMut$LT$K$C$V$GT$$u20$as$u20$core..iter..traits..iterator..Iterator$GT$9size_hint17he052462ea6bbb6b2E
	movq	-64(%rbp), %rdi
	movq	-56(%rbp), %rax
	.loc	26 126 17 is_stmt 0
	movq	-40(%rbp), %rdx
	movq	-32(%rbp), %rcx
	movq	%rdx, -16(%rbp)
	movq	%rcx, -8(%rbp)
Ltmp192:
	.loc	26 127 9 is_stmt 1
	movq	$0, (%rdi)
	movq	%rdx, 8(%rdi)
	movq	%rcx, 16(%rdi)
Ltmp193:
	.loc	26 128 6 epilogue_begin
	addq	$64, %rsp
	popq	%rbp
	retq
Ltmp194:
Lfunc_end13:
	.cfi_endproc

	.p2align	4, 0x90
__ZN157_$LT$$LT$alloc..vec..into_iter..IntoIter$LT$T$C$A$GT$$u20$as$u20$core..ops..drop..Drop$GT$..drop..DropGuard$LT$T$C$A$GT$$u20$as$u20$core..ops..drop..Drop$GT$4drop17h3b18af30879d195fE:
Lfunc_begin14:
	.loc	2 403 0
	.cfi_startproc
	.cfi_personality 155, _rust_eh_personality
	.cfi_lsda 16, Lexception2
	pushq	%rbp
	.cfi_def_cfa_offset 16
	.cfi_offset %rbp, -16
	movq	%rsp, %rbp
	.cfi_def_cfa_register %rbp
	subq	$96, %rsp
	movq	%rdi, -56(%rbp)
Ltmp198:
	.loc	2 406 52 prologue_end
	movq	(%rdi), %rax
Ltmp199:
	.loc	2 408 55
	movq	(%rax), %rcx
	movq	%rcx, -40(%rbp)
Ltmp200:
	.loc	23 326 9
	movq	%rcx, -32(%rbp)
Ltmp201:
	.loc	2 408 76
	movq	(%rdi), %rax
	movq	8(%rax), %rax
	movq	%rax, -24(%rbp)
Ltmp202:
	.loc	23 201 13
	movq	%rcx, -64(%rbp)
Ltmp203:
	.loc	24 90 18
	movq	-64(%rbp), %rcx
	movq	%rcx, -72(%rbp)
Ltmp204:
	.loc	22 215 9
	movq	-72(%rbp), %rcx
	movq	%rcx, -88(%rbp)
	movq	%rax, -80(%rbp)
Ltmp195:
	leaq	-88(%rbp), %rdi
Ltmp205:
	.loc	2 408 94
	callq	__ZN4core3ptr82drop_in_place$LT$alloc..raw_vec..RawVec$LT$sigalign..core..PatternLocation$GT$$GT$17h2d8e825e93ef119eE
Ltmp196:
	jmp	LBB14_3
Ltmp206:
LBB14_1:
	.loc	2 409 17
	xorl	%eax, %eax
	testb	$1, %al
	jne	LBB14_5
	jmp	LBB14_4
LBB14_2:
Ltmp197:
	.loc	2 0 17 is_stmt 0
	movq	%rax, %rcx
	movl	%edx, %eax
	movq	%rcx, -16(%rbp)
	movl	%eax, -8(%rbp)
	jmp	LBB14_1
LBB14_3:
	.loc	2 410 14 epilogue_begin is_stmt 1
	addq	$96, %rsp
	popq	%rbp
	retq
LBB14_4:
	.loc	2 403 13
	movq	-16(%rbp), %rdi
	callq	__Unwind_Resume
LBB14_5:
	.loc	2 409 17
	jmp	LBB14_4
Ltmp207:
Lfunc_end14:
	.cfi_endproc
	.section	__TEXT,__gcc_except_tab
	.p2align	2, 0x0
GCC_except_table14:
Lexception2:
	.byte	255
	.byte	255
	.byte	1
	.uleb128 Lcst_end2-Lcst_begin2
Lcst_begin2:
	.uleb128 Ltmp195-Lfunc_begin14
	.uleb128 Ltmp196-Ltmp195
	.uleb128 Ltmp197-Lfunc_begin14
	.byte	0
	.uleb128 Ltmp196-Lfunc_begin14
	.uleb128 Lfunc_end14-Ltmp196
	.byte	0
	.byte	0
Lcst_end2:
	.p2align	2, 0x0

	.section	__TEXT,__text,regular,pure_instructions
	.p2align	4, 0x90
__ZN3std10sys_common9backtrace28__rust_begin_short_backtrace17ha11c15608fda9a06E:
Lfunc_begin15:
	.file	27 "/rustc/cc66ad468955717ab92600c770da8c1601a4ff33/library/std/src/sys_common" "backtrace.rs"
	.loc	27 150 0
	.cfi_startproc
	pushq	%rbp
	.cfi_def_cfa_offset 16
	.cfi_offset %rbp, -16
	movq	%rsp, %rbp
	.cfi_def_cfa_register %rbp
	subq	$32, %rsp
Ltmp208:
	.file	28 "/rustc/cc66ad468955717ab92600c770da8c1601a4ff33/library/core/src" "hint.rs"
	.loc	28 292 27 prologue_end
	movq	%rdi, -16(%rbp)
Ltmp209:
	.loc	27 154 18
	callq	__ZN4core3ops8function6FnOnce9call_once17he90bc07316527f0fE
Ltmp210:
	.loc	28 293 5
	## InlineAsm Start
	## InlineAsm End
Ltmp211:
	.loc	27 160 2 epilogue_begin
	addq	$32, %rsp
	popq	%rbp
	retq
Ltmp212:
Lfunc_end15:
	.cfi_endproc

	.p2align	4, 0x90
__ZN3std11collections4hash3map24HashMap$LT$K$C$V$C$S$GT$11with_hasher17h38b668bd6531d673E:
Lfunc_begin16:
	.loc	16 286 0
	.cfi_startproc
	pushq	%rbp
	.cfi_def_cfa_offset 16
	.cfi_offset %rbp, -16
	movq	%rsp, %rbp
	.cfi_def_cfa_register %rbp
	subq	$160, %rsp
	movq	%rdi, %rax
	movq	%rax, -160(%rbp)
Ltmp213:
	.loc	17 1541 51 prologue_end
	leaq	L___unnamed_9(%rip), %rax
	movq	%rax, -8(%rbp)
Ltmp214:
	.loc	23 201 13
	leaq	L___unnamed_9(%rip), %rax
	movq	%rax, -16(%rbp)
Ltmp215:
	.loc	17 1539 9
	movq	$0, -40(%rbp)
	movq	-16(%rbp), %rax
	movq	%rax, -48(%rbp)
	movq	$0, -32(%rbp)
	movq	$0, -24(%rbp)
Ltmp216:
	.loc	17 811 9
	movq	-48(%rbp), %rax
	movq	%rax, -80(%rbp)
	movq	-40(%rbp), %rax
	movq	%rax, -72(%rbp)
	movq	-32(%rbp), %rax
	movq	%rax, -64(%rbp)
	movq	-24(%rbp), %rax
	movq	%rax, -56(%rbp)
Ltmp217:
	.loc	18 459 9
	movq	(%rsi), %rax
	movq	%rax, -112(%rbp)
	movq	8(%rsi), %rax
	movq	%rax, -104(%rbp)
	movq	16(%rsi), %rax
	movq	%rax, -96(%rbp)
	movq	24(%rsi), %rax
	movq	%rax, -88(%rbp)
	movq	-80(%rbp), %rax
	movq	%rax, -144(%rbp)
	movq	-72(%rbp), %rax
	movq	%rax, -136(%rbp)
	movq	-64(%rbp), %rax
	movq	%rax, -128(%rbp)
	movq	-56(%rbp), %rax
	movq	%rax, -120(%rbp)
Ltmp218:
	.loc	16 287 9
	leaq	-144(%rbp), %rsi
Ltmp219:
	movl	$64, %edx
	callq	_memcpy
	movq	-160(%rbp), %rax
	.loc	16 288 6 epilogue_begin
	addq	$160, %rsp
	popq	%rbp
	retq
Ltmp220:
Lfunc_end16:
	.cfi_endproc

	.p2align	4, 0x90
__ZN3std11collections4hash3map24HashMap$LT$K$C$V$C$S$GT$6insert17heb4fab96233c2e2dE:
Lfunc_begin17:
	.loc	16 1104 0
	.cfi_startproc
	pushq	%rbp
	.cfi_def_cfa_offset 16
	.cfi_offset %rbp, -16
	movq	%rsp, %rbp
	.cfi_def_cfa_register %rbp
	subq	$32, %rsp
	movq	%rdi, %rax
	movq	%rax, -24(%rbp)
	movq	%rsi, -16(%rbp)
	movl	%edx, -4(%rbp)
Ltmp221:
	.loc	16 1105 9 prologue_end
	callq	__ZN9hashbrown3map28HashMap$LT$K$C$V$C$S$C$A$GT$6insert17hd860b3573c290717E
Ltmp222:
	.loc	16 0 9 is_stmt 0
	movq	-24(%rbp), %rax
	.loc	16 1106 6 epilogue_begin is_stmt 1
	addq	$32, %rsp
	popq	%rbp
	retq
Ltmp223:
Lfunc_end17:
	.cfi_endproc

	.p2align	4, 0x90
__ZN3std11collections4hash3map24HashMap$LT$K$C$V$C$S$GT$7get_mut17h5c368bb34696477aE:
Lfunc_begin18:
	.loc	16 1070 0
	.cfi_startproc
	pushq	%rbp
	.cfi_def_cfa_offset 16
	.cfi_offset %rbp, -16
	movq	%rsp, %rbp
	.cfi_def_cfa_register %rbp
	subq	$16, %rsp
	movq	%rdi, -16(%rbp)
	movq	%rsi, -8(%rbp)
Ltmp224:
	.loc	16 1075 9 prologue_end
	callq	__ZN9hashbrown3map28HashMap$LT$K$C$V$C$S$C$A$GT$7get_mut17h4d0de5c87e2e26d2E
	.loc	16 1076 6 epilogue_begin
	addq	$16, %rsp
	popq	%rbp
	retq
Ltmp225:
Lfunc_end18:
	.cfi_endproc

	.p2align	4, 0x90
__ZN3std11collections4hash3map24HashMap$LT$K$C$V$C$S$GT$8iter_mut17h379ea586172de0bcE:
Lfunc_begin19:
	.loc	16 553 0
	.cfi_startproc
	pushq	%rbp
	.cfi_def_cfa_offset 16
	.cfi_offset %rbp, -16
	movq	%rsp, %rbp
	.cfi_def_cfa_register %rbp
	subq	$112, %rsp
	movq	%rdi, -104(%rbp)
	movq	%rdi, -96(%rbp)
	movq	%rsi, -8(%rbp)
Ltmp226:
	.loc	18 803 24 prologue_end
	leaq	-48(%rbp), %rdi
	callq	__ZN9hashbrown3raw21RawTable$LT$T$C$A$GT$4iter17h3b79bab12248abe8E
	.loc	18 802 13
	leaq	-88(%rbp), %rdi
	leaq	-48(%rbp), %rsi
	movl	$40, %edx
	callq	_memcpy
	movq	-104(%rbp), %rdi
Ltmp227:
	.loc	16 554 9
	leaq	-88(%rbp), %rsi
	movl	$40, %edx
	callq	_memcpy
	movq	-96(%rbp), %rax
	.loc	16 555 6 epilogue_begin
	addq	$112, %rsp
	popq	%rbp
	retq
Ltmp228:
Lfunc_end19:
	.cfi_endproc

	.private_extern	__ZN3std2rt10lang_start17h222a3e0a67f3d7deE
	.globl	__ZN3std2rt10lang_start17h222a3e0a67f3d7deE
	.p2align	4, 0x90
__ZN3std2rt10lang_start17h222a3e0a67f3d7deE:
Lfunc_begin20:
	.file	29 "/rustc/cc66ad468955717ab92600c770da8c1601a4ff33/library/std/src" "rt.rs"
	.loc	29 159 0
	.cfi_startproc
	pushq	%rbp
	.cfi_def_cfa_offset 16
	.cfi_offset %rbp, -16
	movq	%rsp, %rbp
	.cfi_def_cfa_register %rbp
	subq	$64, %rsp
	movl	%ecx, %eax
	movq	%rdx, %rcx
	movq	%rsi, %rdx
	movq	%rdi, -40(%rbp)
	movq	%rdx, -32(%rbp)
	movq	%rcx, -24(%rbp)
	movb	%al, -9(%rbp)
Ltmp229:
	.loc	29 166 10 prologue_end
	movq	%rdi, -48(%rbp)
	.loc	29 165 17
	leaq	-48(%rbp), %rdi
	leaq	l___unnamed_1(%rip), %rsi
	movzbl	%al, %r8d
	callq	__ZN3std2rt19lang_start_internal17h54faea1e36783632E
	movq	%rax, -56(%rbp)
	.loc	29 165 12 is_stmt 0
	movq	-56(%rbp), %rax
	movq	%rax, -8(%rbp)
	.loc	29 172 2 epilogue_begin is_stmt 1
	addq	$64, %rsp
	popq	%rbp
	retq
Ltmp230:
Lfunc_end20:
	.cfi_endproc

	.p2align	4, 0x90
__ZN3std2rt10lang_start28_$u7b$$u7b$closure$u7d$$u7d$17hc47e16b771a7b397E:
Lfunc_begin21:
	.loc	29 166 0
	.cfi_startproc
	pushq	%rbp
	.cfi_def_cfa_offset 16
	.cfi_offset %rbp, -16
	movq	%rsp, %rbp
	.cfi_def_cfa_register %rbp
	subq	$16, %rsp
	movq	%rdi, -16(%rbp)
Ltmp231:
	.loc	29 166 77 prologue_end
	movq	(%rdi), %rdi
	.loc	29 166 18 is_stmt 0
	callq	__ZN3std10sys_common9backtrace28__rust_begin_short_backtrace17ha11c15608fda9a06E
	callq	__ZN54_$LT$$LP$$RP$$u20$as$u20$std..process..Termination$GT$6report17h5b6ac2943b6f999eE
	movb	%al, -1(%rbp)
Ltmp232:
	.file	30 "/rustc/cc66ad468955717ab92600c770da8c1601a4ff33/library/std/src/sys/unix/process" "process_common.rs"
	.loc	30 594 9 is_stmt 1
	movzbl	%al, %eax
Ltmp233:
	.loc	29 166 100 epilogue_begin
	addq	$16, %rsp
	popq	%rbp
	retq
Ltmp234:
Lfunc_end21:
	.cfi_endproc
	.file	31 "/rustc/cc66ad468955717ab92600c770da8c1601a4ff33/library/std/src" "process.rs"

	.p2align	4, 0x90
__ZN49_$LT$usize$u20$as$u20$core..iter..range..Step$GT$17forward_unchecked17h0e211a17e29c3dd2E:
Lfunc_begin22:
	.file	32 "/rustc/cc66ad468955717ab92600c770da8c1601a4ff33/library/core/src/iter" "range.rs"
	.loc	32 189 0
	.cfi_startproc
	pushq	%rbp
	.cfi_def_cfa_offset 16
	.cfi_offset %rbp, -16
	movq	%rsp, %rbp
	.cfi_def_cfa_register %rbp
	movq	%rdi, %rax
	movq	%rax, -16(%rbp)
	movq	%rsi, -8(%rbp)
Ltmp235:
	.loc	4 1267 5 prologue_end
	addq	%rsi, %rax
Ltmp236:
	.loc	32 192 10 epilogue_begin
	popq	%rbp
	retq
Ltmp237:
Lfunc_end22:
	.cfi_endproc

	.p2align	4, 0x90
__ZN4core3fmt9Arguments16new_v1_formatted17h523f21bf13361b29E:
Lfunc_begin23:
	.file	33 "/rustc/cc66ad468955717ab92600c770da8c1601a4ff33/library/core/src/fmt" "mod.rs"
	.loc	33 322 0
	.cfi_startproc
	pushq	%rbp
	.cfi_def_cfa_offset 16
	.cfi_offset %rbp, -16
	movq	%rsp, %rbp
	.cfi_def_cfa_register %rbp
	movq	%r9, %r10
	movq	%rdi, %rax
	movq	16(%rbp), %r9
Ltmp238:
	.loc	33 326 9 prologue_end
	movq	%rsi, -56(%rbp)
	movq	%rdx, -48(%rbp)
	movq	%rcx, -40(%rbp)
	movq	%r8, -32(%rbp)
	movq	%r10, -24(%rbp)
	movq	%r9, -16(%rbp)
	.loc	33 328 34
	movq	%r10, -72(%rbp)
	movq	%r9, -64(%rbp)
	.loc	33 328 9 is_stmt 0
	movq	%rsi, (%rdi)
	movq	%rdx, 8(%rdi)
	movq	-72(%rbp), %rsi
	movq	-64(%rbp), %rdx
	movq	%rsi, 32(%rdi)
	movq	%rdx, 40(%rdi)
	movq	%rcx, 16(%rdi)
	movq	%r8, 24(%rdi)
	.loc	33 329 6 epilogue_begin is_stmt 1
	popq	%rbp
	retq
Ltmp239:
Lfunc_end23:
	.cfi_endproc

	.p2align	4, 0x90
__ZN4core3ops8function5impls79_$LT$impl$u20$core..ops..function..FnMut$LT$A$GT$$u20$for$u20$$RF$mut$u20$F$GT$8call_mut17hc975424d53ca5781E:
Lfunc_begin24:
	.file	34 "/rustc/cc66ad468955717ab92600c770da8c1601a4ff33/library/core/src/ops" "function.rs"
	.loc	34 293 0
	.cfi_startproc
	pushq	%rbp
	.cfi_def_cfa_offset 16
	.cfi_offset %rbp, -16
	movq	%rsp, %rbp
	.cfi_def_cfa_register %rbp
	subq	$32, %rsp
	movq	%rdi, %rax
	movq	%rax, -32(%rbp)
	movq	%rdx, -24(%rbp)
	movq	%rcx, -16(%rbp)
	movq	%rsi, -8(%rbp)
Ltmp240:
	.loc	34 294 13 prologue_end
	movq	(%rsi), %rsi
	movq	-24(%rbp), %rdx
	movq	-16(%rbp), %rcx
	callq	__ZN8sigalign9algorithm5local25local_alignment_algorithm28_$u7b$$u7b$closure$u7d$$u7d$17hadce4d4901466ed2E
	movq	-32(%rbp), %rax
	.loc	34 295 10 epilogue_begin
	addq	$32, %rsp
	popq	%rbp
	retq
Ltmp241:
Lfunc_end24:
	.cfi_endproc

	.p2align	4, 0x90
__ZN4core3ops8function5impls79_$LT$impl$u20$core..ops..function..FnMut$LT$A$GT$$u20$for$u20$$RF$mut$u20$F$GT$8call_mut17hc9f86bad6e3861f8E:
Lfunc_begin25:
	.loc	34 293 0
	.cfi_startproc
	pushq	%rbp
	.cfi_def_cfa_offset 16
	.cfi_offset %rbp, -16
	movq	%rsp, %rbp
	.cfi_def_cfa_register %rbp
	subq	$32, %rsp
	movq	%rdi, %rax
	movq	%rax, -32(%rbp)
	movq	%rdx, -24(%rbp)
	movq	%rcx, -16(%rbp)
	movq	%rsi, -8(%rbp)
Ltmp242:
	.loc	34 294 13 prologue_end
	movq	(%rsi), %rsi
	movq	-24(%rbp), %rdx
	movq	-16(%rbp), %rcx
	callq	__ZN8sigalign9algorithm11semi_global31semi_global_alignment_algorithm28_$u7b$$u7b$closure$u7d$$u7d$17h190d1b955eb2f494E
	movq	-32(%rbp), %rax
	.loc	34 295 10 epilogue_begin
	addq	$32, %rsp
	popq	%rbp
	retq
Ltmp243:
Lfunc_end25:
	.cfi_endproc

	.p2align	4, 0x90
__ZN4core3ops8function6FnOnce40call_once$u7b$$u7b$vtable.shim$u7d$$u7d$17h2f3924f88be01d08E:
Lfunc_begin26:
	.loc	34 250 0
	.cfi_startproc
	pushq	%rbp
	.cfi_def_cfa_offset 16
	.cfi_offset %rbp, -16
	movq	%rsp, %rbp
	.cfi_def_cfa_register %rbp
	subq	$32, %rsp
	movq	%rsi, -24(%rbp)
	movq	%rdx, -16(%rbp)
	movq	%rdi, -8(%rbp)
Ltmp244:
	.loc	34 250 5 prologue_end
	movq	(%rdi), %rdi
	movq	-24(%rbp), %rsi
	movq	-16(%rbp), %rdx
	callq	__ZN4core3ops8function6FnOnce9call_once17he46254d7eb313f45E
	.loc	34 250 5 epilogue_begin is_stmt 0
	addq	$32, %rsp
	popq	%rbp
	retq
Ltmp245:
Lfunc_end26:
	.cfi_endproc

	.p2align	4, 0x90
__ZN4core3ops8function6FnOnce40call_once$u7b$$u7b$vtable.shim$u7d$$u7d$17h3aaacf0e60f6bbb4E:
Lfunc_begin27:
	.loc	34 250 0 is_stmt 1
	.cfi_startproc
	pushq	%rbp
	.cfi_def_cfa_offset 16
	.cfi_offset %rbp, -16
	movq	%rsp, %rbp
	.cfi_def_cfa_register %rbp
	subq	$16, %rsp
	movq	%rdi, %rax
	movq	%rsi, -16(%rbp)
	movq	%rax, -8(%rbp)
Ltmp246:
	.loc	34 250 5 prologue_end
	movq	(%rax), %rdi
	movq	8(%rax), %rsi
	movq	-16(%rbp), %rdx
	callq	__ZN4core3ops8function6FnOnce9call_once17h5902400ba2b12711E
	andb	$1, %al
	movzbl	%al, %eax
	.loc	34 250 5 epilogue_begin is_stmt 0
	addq	$16, %rsp
	popq	%rbp
	retq
Ltmp247:
Lfunc_end27:
	.cfi_endproc

	.p2align	4, 0x90
__ZN4core3ops8function6FnOnce40call_once$u7b$$u7b$vtable.shim$u7d$$u7d$17hc28f5cd135ec3c39E:
Lfunc_begin28:
	.loc	34 250 0 is_stmt 1
	.cfi_startproc
	pushq	%rbp
	.cfi_def_cfa_offset 16
	.cfi_offset %rbp, -16
	movq	%rsp, %rbp
	.cfi_def_cfa_register %rbp
	subq	$16, %rsp
	movq	%rdi, %rax
	movq	%rsi, -16(%rbp)
	movq	%rax, -8(%rbp)
Ltmp248:
	.loc	34 250 5 prologue_end
	movq	(%rax), %rdi
	movq	8(%rax), %rsi
	movq	-16(%rbp), %rdx
	callq	__ZN4core3ops8function6FnOnce9call_once17had767ef01cb50af1E
	andb	$1, %al
	movzbl	%al, %eax
	.loc	34 250 5 epilogue_begin is_stmt 0
	addq	$16, %rsp
	popq	%rbp
	retq
Ltmp249:
Lfunc_end28:
	.cfi_endproc

	.p2align	4, 0x90
__ZN4core3ops8function6FnOnce40call_once$u7b$$u7b$vtable.shim$u7d$$u7d$17hf4e8fd7bb3a7edb0E:
Lfunc_begin29:
	.loc	34 250 0 is_stmt 1
	.cfi_startproc
	pushq	%rbp
	.cfi_def_cfa_offset 16
	.cfi_offset %rbp, -16
	movq	%rsp, %rbp
	.cfi_def_cfa_register %rbp
	subq	$16, %rsp
	movq	%rdi, -8(%rbp)
Ltmp250:
	.loc	34 250 5 prologue_end
	movq	(%rdi), %rdi
	callq	__ZN4core3ops8function6FnOnce9call_once17h20efe6cc20abdf9eE
	.loc	34 250 5 epilogue_begin is_stmt 0
	addq	$16, %rsp
	popq	%rbp
	retq
Ltmp251:
Lfunc_end29:
	.cfi_endproc

	.p2align	4, 0x90
__ZN4core3ops8function6FnOnce9call_once17h20efe6cc20abdf9eE:
Lfunc_begin30:
	.loc	34 250 0 is_stmt 1
	.cfi_startproc
	.cfi_personality 155, _rust_eh_personality
	.cfi_lsda 16, Lexception3
	pushq	%rbp
	.cfi_def_cfa_offset 16
	.cfi_offset %rbp, -16
	movq	%rsp, %rbp
	.cfi_def_cfa_register %rbp
	subq	$48, %rsp
	movq	%rdi, -32(%rbp)
Ltmp252:
	leaq	-32(%rbp), %rdi
Ltmp255:
	.loc	34 250 5 prologue_end
	callq	__ZN3std2rt10lang_start28_$u7b$$u7b$closure$u7d$$u7d$17hc47e16b771a7b397E
Ltmp253:
	movl	%eax, -36(%rbp)
	jmp	LBB30_3
LBB30_1:
	movq	-16(%rbp), %rdi
	callq	__Unwind_Resume
LBB30_2:
Ltmp254:
	.loc	34 0 5 is_stmt 0
	movq	%rax, %rcx
	movl	%edx, %eax
	movq	%rcx, -16(%rbp)
	movl	%eax, -8(%rbp)
	jmp	LBB30_1
LBB30_3:
	movl	-36(%rbp), %eax
	.loc	34 250 5 epilogue_begin
	addq	$48, %rsp
	popq	%rbp
	retq
Ltmp256:
Lfunc_end30:
	.cfi_endproc
	.section	__TEXT,__gcc_except_tab
	.p2align	2, 0x0
GCC_except_table30:
Lexception3:
	.byte	255
	.byte	255
	.byte	1
	.uleb128 Lcst_end3-Lcst_begin3
Lcst_begin3:
	.uleb128 Ltmp252-Lfunc_begin30
	.uleb128 Ltmp253-Ltmp252
	.uleb128 Ltmp254-Lfunc_begin30
	.byte	0
	.uleb128 Ltmp253-Lfunc_begin30
	.uleb128 Lfunc_end30-Ltmp253
	.byte	0
	.byte	0
Lcst_end3:
	.p2align	2, 0x0

	.section	__TEXT,__text,regular,pure_instructions
	.p2align	4, 0x90
__ZN4core3ops8function6FnOnce9call_once17h5902400ba2b12711E:
Lfunc_begin31:
	.loc	34 250 0 is_stmt 1
	.cfi_startproc
	.cfi_personality 155, _rust_eh_personality
	.cfi_lsda 16, Lexception4
	pushq	%rbp
	.cfi_def_cfa_offset 16
	.cfi_offset %rbp, -16
	movq	%rsp, %rbp
	.cfi_def_cfa_register %rbp
	subq	$48, %rsp
	movq	%rdi, -40(%rbp)
	movq	%rsi, -32(%rbp)
	movq	%rdx, -24(%rbp)
Ltmp260:
	.loc	34 250 5 prologue_end
	movq	-24(%rbp), %rsi
Ltmp257:
	leaq	-40(%rbp), %rdi
	callq	__ZN9hashbrown3raw21RawTable$LT$T$C$A$GT$4find28_$u7b$$u7b$closure$u7d$$u7d$17hd5a6531ca539ed62E
Ltmp258:
	movb	%al, -41(%rbp)
	jmp	LBB31_3
LBB31_1:
	movq	-16(%rbp), %rdi
	callq	__Unwind_Resume
LBB31_2:
Ltmp259:
	.loc	34 0 5 is_stmt 0
	movq	%rax, %rcx
	movl	%edx, %eax
	movq	%rcx, -16(%rbp)
	movl	%eax, -8(%rbp)
	jmp	LBB31_1
LBB31_3:
	movb	-41(%rbp), %al
	.loc	34 250 5
	andb	$1, %al
	movzbl	%al, %eax
	.loc	34 250 5 epilogue_begin
	addq	$48, %rsp
	popq	%rbp
	retq
Ltmp261:
Lfunc_end31:
	.cfi_endproc
	.section	__TEXT,__gcc_except_tab
	.p2align	2, 0x0
GCC_except_table31:
Lexception4:
	.byte	255
	.byte	255
	.byte	1
	.uleb128 Lcst_end4-Lcst_begin4
Lcst_begin4:
	.uleb128 Ltmp257-Lfunc_begin31
	.uleb128 Ltmp258-Ltmp257
	.uleb128 Ltmp259-Lfunc_begin31
	.byte	0
	.uleb128 Ltmp258-Lfunc_begin31
	.uleb128 Lfunc_end31-Ltmp258
	.byte	0
	.byte	0
Lcst_end4:
	.p2align	2, 0x0

	.section	__TEXT,__text,regular,pure_instructions
	.p2align	4, 0x90
__ZN4core3ops8function6FnOnce9call_once17had767ef01cb50af1E:
Lfunc_begin32:
	.loc	34 250 0 is_stmt 1
	.cfi_startproc
	.cfi_personality 155, _rust_eh_personality
	.cfi_lsda 16, Lexception5
	pushq	%rbp
	.cfi_def_cfa_offset 16
	.cfi_offset %rbp, -16
	movq	%rsp, %rbp
	.cfi_def_cfa_register %rbp
	subq	$48, %rsp
	movq	%rdi, -40(%rbp)
	movq	%rsi, -32(%rbp)
	movq	%rdx, -24(%rbp)
Ltmp265:
	.loc	34 250 5 prologue_end
	movq	-24(%rbp), %rsi
Ltmp262:
	leaq	-40(%rbp), %rdi
	callq	__ZN9hashbrown3raw21RawTable$LT$T$C$A$GT$24find_or_find_insert_slot28_$u7b$$u7b$closure$u7d$$u7d$17h670f965f31fb4e4dE
Ltmp263:
	movb	%al, -41(%rbp)
	jmp	LBB32_3
LBB32_1:
	movq	-16(%rbp), %rdi
	callq	__Unwind_Resume
LBB32_2:
Ltmp264:
	.loc	34 0 5 is_stmt 0
	movq	%rax, %rcx
	movl	%edx, %eax
	movq	%rcx, -16(%rbp)
	movl	%eax, -8(%rbp)
	jmp	LBB32_1
LBB32_3:
	movb	-41(%rbp), %al
	.loc	34 250 5
	andb	$1, %al
	movzbl	%al, %eax
	.loc	34 250 5 epilogue_begin
	addq	$48, %rsp
	popq	%rbp
	retq
Ltmp266:
Lfunc_end32:
	.cfi_endproc
	.section	__TEXT,__gcc_except_tab
	.p2align	2, 0x0
GCC_except_table32:
Lexception5:
	.byte	255
	.byte	255
	.byte	1
	.uleb128 Lcst_end5-Lcst_begin5
Lcst_begin5:
	.uleb128 Ltmp262-Lfunc_begin32
	.uleb128 Ltmp263-Ltmp262
	.uleb128 Ltmp264-Lfunc_begin32
	.byte	0
	.uleb128 Ltmp263-Lfunc_begin32
	.uleb128 Lfunc_end32-Ltmp263
	.byte	0
	.byte	0
Lcst_end5:
	.p2align	2, 0x0

	.section	__TEXT,__text,regular,pure_instructions
	.p2align	4, 0x90
__ZN4core3ops8function6FnOnce9call_once17he46254d7eb313f45E:
Lfunc_begin33:
	.loc	34 250 0 is_stmt 1
	.cfi_startproc
	.cfi_personality 155, _rust_eh_personality
	.cfi_lsda 16, Lexception6
	pushq	%rbp
	.cfi_def_cfa_offset 16
	.cfi_offset %rbp, -16
	movq	%rsp, %rbp
	.cfi_def_cfa_register %rbp
	subq	$48, %rsp
	movq	%rdi, -40(%rbp)
	movq	%rsi, -32(%rbp)
	movq	%rdx, -24(%rbp)
Ltmp270:
	.loc	34 250 5 prologue_end
	movq	-32(%rbp), %rsi
	movq	-24(%rbp), %rdx
Ltmp267:
	leaq	-40(%rbp), %rdi
	callq	__ZN9hashbrown3raw21RawTable$LT$T$C$A$GT$14reserve_rehash28_$u7b$$u7b$closure$u7d$$u7d$17h10c48481fb2aa221E
Ltmp268:
	movq	%rax, -48(%rbp)
	jmp	LBB33_3
LBB33_1:
	movq	-16(%rbp), %rdi
	callq	__Unwind_Resume
LBB33_2:
Ltmp269:
	.loc	34 0 5 is_stmt 0
	movq	%rax, %rcx
	movl	%edx, %eax
	movq	%rcx, -16(%rbp)
	movl	%eax, -8(%rbp)
	jmp	LBB33_1
LBB33_3:
	movq	-48(%rbp), %rax
	.loc	34 250 5 epilogue_begin
	addq	$48, %rsp
	popq	%rbp
	retq
Ltmp271:
Lfunc_end33:
	.cfi_endproc
	.section	__TEXT,__gcc_except_tab
	.p2align	2, 0x0
GCC_except_table33:
Lexception6:
	.byte	255
	.byte	255
	.byte	1
	.uleb128 Lcst_end6-Lcst_begin6
Lcst_begin6:
	.uleb128 Ltmp267-Lfunc_begin33
	.uleb128 Ltmp268-Ltmp267
	.uleb128 Ltmp269-Lfunc_begin33
	.byte	0
	.uleb128 Ltmp268-Lfunc_begin33
	.uleb128 Lfunc_end33-Ltmp268
	.byte	0
	.byte	0
Lcst_end6:
	.p2align	2, 0x0

	.section	__TEXT,__text,regular,pure_instructions
	.p2align	4, 0x90
__ZN4core3ops8function6FnOnce9call_once17he90bc07316527f0fE:
Lfunc_begin34:
	.loc	34 250 0 is_stmt 1
	.cfi_startproc
	pushq	%rbp
	.cfi_def_cfa_offset 16
	.cfi_offset %rbp, -16
	movq	%rsp, %rbp
	.cfi_def_cfa_register %rbp
	subq	$16, %rsp
	movq	%rdi, -8(%rbp)
Ltmp272:
	.loc	34 250 5 prologue_end
	callq	*%rdi
	.loc	34 250 5 epilogue_begin is_stmt 0
	addq	$16, %rsp
	popq	%rbp
	retq
Ltmp273:
Lfunc_end34:
	.cfi_endproc

	.p2align	4, 0x90
__ZN4core3ptr100drop_in_place$LT$ahash..hash_map..AHashMap$LT$u32$C$sigalign..algorithm..anchor..AnchorTable$GT$$GT$17h87b68c32bfce6610E:
Lfunc_begin35:
	.loc	7 497 0 is_stmt 1
	.cfi_startproc
	pushq	%rbp
	.cfi_def_cfa_offset 16
	.cfi_offset %rbp, -16
	movq	%rsp, %rbp
	.cfi_def_cfa_register %rbp
	subq	$16, %rsp
	movq	%rdi, -8(%rbp)
Ltmp274:
	.loc	7 497 1 prologue_end
	callq	__ZN4core3ptr146drop_in_place$LT$std..collections..hash..map..HashMap$LT$u32$C$sigalign..algorithm..anchor..AnchorTable$C$ahash..random_state..RandomState$GT$$GT$17h538bf5c12658a6faE
	.loc	7 497 1 epilogue_begin is_stmt 0
	addq	$16, %rsp
	popq	%rbp
	retq
Ltmp275:
Lfunc_end35:
	.cfi_endproc

	.p2align	4, 0x90
__ZN4core3ptr105drop_in_place$LT$core..ops..control_flow..ControlFlow$LT$sigalign..results..TargetAlignmentResult$GT$$GT$17heed029e8c29452ccE:
Lfunc_begin36:
	.loc	7 497 0 is_stmt 1
	.cfi_startproc
	pushq	%rbp
	.cfi_def_cfa_offset 16
	.cfi_offset %rbp, -16
	movq	%rsp, %rbp
	.cfi_def_cfa_register %rbp
	subq	$16, %rsp
	movq	%rdi, -16(%rbp)
	movq	%rdi, -8(%rbp)
Ltmp276:
	.loc	7 497 1 prologue_end
	movq	(%rdi), %rdx
	movl	$1, %eax
	xorl	%ecx, %ecx
	cmpq	$0, %rdx
	cmoveq	%rcx, %rax
	cmpq	$0, %rax
	jne	LBB36_2
LBB36_1:
	.loc	7 497 1 epilogue_begin is_stmt 0
	addq	$16, %rsp
	popq	%rbp
	retq
LBB36_2:
	.loc	7 0 1
	movq	-16(%rbp), %rdi
	.loc	7 497 1
	callq	__ZN4core3ptr61drop_in_place$LT$sigalign..results..TargetAlignmentResult$GT$17h958ce2b0ac89169cE
	jmp	LBB36_1
Ltmp277:
Lfunc_end36:
	.cfi_endproc

	.p2align	4, 0x90
__ZN4core3ptr107drop_in_place$LT$hashbrown..raw..RawTable$LT$$LP$u32$C$sigalign..algorithm..anchor..AnchorTable$RP$$GT$$GT$17h0db8cbe2e8ea63b7E:
Lfunc_begin37:
	.loc	7 497 0 is_stmt 1
	.cfi_startproc
	pushq	%rbp
	.cfi_def_cfa_offset 16
	.cfi_offset %rbp, -16
	movq	%rsp, %rbp
	.cfi_def_cfa_register %rbp
	subq	$16, %rsp
	movq	%rdi, -8(%rbp)
Ltmp278:
	.loc	7 497 1 prologue_end
	callq	__ZN79_$LT$hashbrown..raw..RawTable$LT$T$C$A$GT$$u20$as$u20$core..ops..drop..Drop$GT$4drop17h0cfb9f61ee40f749E
	.loc	7 497 1 epilogue_begin is_stmt 0
	addq	$16, %rsp
	popq	%rbp
	retq
Ltmp279:
Lfunc_end37:
	.cfi_endproc

	.p2align	4, 0x90
__ZN4core3ptr133drop_in_place$LT$hashbrown..map..HashMap$LT$u32$C$sigalign..algorithm..anchor..AnchorTable$C$ahash..random_state..RandomState$GT$$GT$17haaefe341eef37ce2E:
Lfunc_begin38:
	.loc	7 497 0 is_stmt 1
	.cfi_startproc
	pushq	%rbp
	.cfi_def_cfa_offset 16
	.cfi_offset %rbp, -16
	movq	%rsp, %rbp
	.cfi_def_cfa_register %rbp
	subq	$16, %rsp
	movq	%rdi, -8(%rbp)
Ltmp280:
	.loc	7 497 1 prologue_end
	callq	__ZN4core3ptr107drop_in_place$LT$hashbrown..raw..RawTable$LT$$LP$u32$C$sigalign..algorithm..anchor..AnchorTable$RP$$GT$$GT$17h0db8cbe2e8ea63b7E
	.loc	7 497 1 epilogue_begin is_stmt 0
	addq	$16, %rsp
	popq	%rbp
	retq
Ltmp281:
Lfunc_end38:
	.cfi_endproc

	.p2align	4, 0x90
__ZN4core3ptr146drop_in_place$LT$std..collections..hash..map..HashMap$LT$u32$C$sigalign..algorithm..anchor..AnchorTable$C$ahash..random_state..RandomState$GT$$GT$17h538bf5c12658a6faE:
Lfunc_begin39:
	.loc	7 497 0 is_stmt 1
	.cfi_startproc
	pushq	%rbp
	.cfi_def_cfa_offset 16
	.cfi_offset %rbp, -16
	movq	%rsp, %rbp
	.cfi_def_cfa_register %rbp
	subq	$16, %rsp
	movq	%rdi, -8(%rbp)
Ltmp282:
	.loc	7 497 1 prologue_end
	callq	__ZN4core3ptr133drop_in_place$LT$hashbrown..map..HashMap$LT$u32$C$sigalign..algorithm..anchor..AnchorTable$C$ahash..random_state..RandomState$GT$$GT$17haaefe341eef37ce2E
	.loc	7 497 1 epilogue_begin is_stmt 0
	addq	$16, %rsp
	popq	%rbp
	retq
Ltmp283:
Lfunc_end39:
	.cfi_endproc

	.p2align	4, 0x90
__ZN4core3ptr185drop_in_place$LT$$LT$alloc..vec..into_iter..IntoIter$LT$T$C$A$GT$$u20$as$u20$core..ops..drop..Drop$GT$..drop..DropGuard$LT$sigalign..core..PatternLocation$C$alloc..alloc..Global$GT$$GT$17h5ccee5d524e71914E:
Lfunc_begin40:
	.loc	7 497 0 is_stmt 1
	.cfi_startproc
	pushq	%rbp
	.cfi_def_cfa_offset 16
	.cfi_offset %rbp, -16
	movq	%rsp, %rbp
	.cfi_def_cfa_register %rbp
	subq	$16, %rsp
	movq	%rdi, -8(%rbp)
Ltmp284:
	.loc	7 497 1 prologue_end
	callq	__ZN157_$LT$$LT$alloc..vec..into_iter..IntoIter$LT$T$C$A$GT$$u20$as$u20$core..ops..drop..Drop$GT$..drop..DropGuard$LT$T$C$A$GT$$u20$as$u20$core..ops..drop..Drop$GT$4drop17h3b18af30879d195fE
	.loc	7 497 1 epilogue_begin is_stmt 0
	addq	$16, %rsp
	popq	%rbp
	retq
Ltmp285:
Lfunc_end40:
	.cfi_endproc

	.p2align	4, 0x90
__ZN4core3ptr187drop_in_place$LT$sigalign..reference..Reference$LT$sigalign..reference..pattern_index..lfi..dynamic..DynamicLfi$C$sigalign..reference..sequence_storage..in_memory..InMemoryStorage$GT$$GT$17h2e842cbf9ee1bf67E:
Lfunc_begin41:
	.loc	7 497 0 is_stmt 1
	.cfi_startproc
	.cfi_personality 155, _rust_eh_personality
	.cfi_lsda 16, Lexception7
	pushq	%rbp
	.cfi_def_cfa_offset 16
	.cfi_offset %rbp, -16
	movq	%rsp, %rbp
	.cfi_def_cfa_register %rbp
	subq	$32, %rsp
	movq	%rdi, -32(%rbp)
	movq	%rdi, -24(%rbp)
Ltmp297:
	.loc	7 497 1 prologue_end
	addq	$464, %rdi
Ltmp286:
	callq	__ZN4core3ptr47drop_in_place$LT$alloc..vec..Vec$LT$u32$GT$$GT$17h03c1eeb5196e62eaE
Ltmp287:
	jmp	LBB41_3
LBB41_1:
Ltmp289:
	.loc	7 0 1 is_stmt 0
	movq	-32(%rbp), %rdi
	.loc	7 497 1
	callq	__ZN4core3ptr81drop_in_place$LT$sigalign..reference..pattern_index..lfi..dynamic..DynamicLfi$GT$17hbdfe8920e60f9c1cE
Ltmp290:
	jmp	LBB41_4
LBB41_2:
Ltmp288:
	.loc	7 0 1
	movq	%rax, %rcx
	movl	%edx, %eax
	movq	%rcx, -16(%rbp)
	movl	%eax, -8(%rbp)
	jmp	LBB41_1
LBB41_3:
Ltmp291:
	movq	-32(%rbp), %rdi
	.loc	7 497 1
	callq	__ZN4core3ptr81drop_in_place$LT$sigalign..reference..pattern_index..lfi..dynamic..DynamicLfi$GT$17hbdfe8920e60f9c1cE
Ltmp292:
	jmp	LBB41_6
LBB41_4:
	.loc	7 0 1
	movq	-32(%rbp), %rdi
	.loc	7 497 1
	addq	$488, %rdi
Ltmp294:
	callq	__ZN4core3ptr86drop_in_place$LT$sigalign..reference..sequence_storage..in_memory..InMemoryStorage$GT$17h9e2c21c4c13a6073E
Ltmp295:
	jmp	LBB41_8
LBB41_5:
Ltmp293:
	.loc	7 0 1
	movq	%rax, %rcx
	movl	%edx, %eax
	movq	%rcx, -16(%rbp)
	movl	%eax, -8(%rbp)
	jmp	LBB41_4
LBB41_6:
	movq	-32(%rbp), %rdi
	.loc	7 497 1
	addq	$488, %rdi
	callq	__ZN4core3ptr86drop_in_place$LT$sigalign..reference..sequence_storage..in_memory..InMemoryStorage$GT$17h9e2c21c4c13a6073E
	.loc	7 497 1 epilogue_begin
	addq	$32, %rsp
	popq	%rbp
	retq
LBB41_7:
Ltmp296:
	callq	__ZN4core9panicking19panic_cannot_unwind17h0477e80cce5de375E
LBB41_8:
	movq	-16(%rbp), %rdi
	callq	__Unwind_Resume
Ltmp298:
Lfunc_end41:
	.cfi_endproc
	.section	__TEXT,__gcc_except_tab
	.p2align	2, 0x0
GCC_except_table41:
Lexception7:
	.byte	255
	.byte	155
	.uleb128 Lttbase2-Lttbaseref2
Lttbaseref2:
	.byte	1
	.uleb128 Lcst_end7-Lcst_begin7
Lcst_begin7:
	.uleb128 Ltmp286-Lfunc_begin41
	.uleb128 Ltmp287-Ltmp286
	.uleb128 Ltmp288-Lfunc_begin41
	.byte	0
	.uleb128 Ltmp289-Lfunc_begin41
	.uleb128 Ltmp290-Ltmp289
	.uleb128 Ltmp296-Lfunc_begin41
	.byte	1
	.uleb128 Ltmp291-Lfunc_begin41
	.uleb128 Ltmp292-Ltmp291
	.uleb128 Ltmp293-Lfunc_begin41
	.byte	0
	.uleb128 Ltmp294-Lfunc_begin41
	.uleb128 Ltmp295-Ltmp294
	.uleb128 Ltmp296-Lfunc_begin41
	.byte	1
	.uleb128 Ltmp295-Lfunc_begin41
	.uleb128 Lfunc_end41-Ltmp295
	.byte	0
	.byte	0
Lcst_end7:
	.byte	127
	.byte	0
	.p2align	2, 0x0
Lttbase2:
	.byte	0
	.p2align	2, 0x0

	.section	__TEXT,__text,regular,pure_instructions
	.p2align	4, 0x90
__ZN4core3ptr269drop_in_place$LT$hashbrown..raw..RawTable$LT$$LP$u32$C$sigalign..algorithm..anchor..AnchorTable$RP$$GT$..find$LT$hashbrown..map..equivalent_key$LT$u32$C$u32$C$sigalign..algorithm..anchor..AnchorTable$GT$..$u7b$$u7b$closure$u7d$$u7d$$GT$..$u7b$$u7b$closure$u7d$$u7d$$GT$17hab622d2227262902E:
Lfunc_begin42:
	.loc	7 497 0 is_stmt 1
	.cfi_startproc
	pushq	%rbp
	.cfi_def_cfa_offset 16
	.cfi_offset %rbp, -16
	movq	%rsp, %rbp
	.cfi_def_cfa_register %rbp
	movq	%rdi, -8(%rbp)
Ltmp299:
	.loc	7 497 1 prologue_end epilogue_begin
	popq	%rbp
	retq
Ltmp300:
Lfunc_end42:
	.cfi_endproc

	.p2align	4, 0x90
__ZN4core3ptr305drop_in_place$LT$hashbrown..raw..RawTable$LT$$LP$u32$C$sigalign..algorithm..anchor..AnchorTable$RP$$GT$..reserve_rehash$LT$hashbrown..map..make_hasher$LT$u32$C$sigalign..algorithm..anchor..AnchorTable$C$ahash..random_state..RandomState$GT$..$u7b$$u7b$closure$u7d$$u7d$$GT$..$u7b$$u7b$closure$u7d$$u7d$$GT$17h3bfadca54d45219cE:
Lfunc_begin43:
	.loc	7 497 0
	.cfi_startproc
	pushq	%rbp
	.cfi_def_cfa_offset 16
	.cfi_offset %rbp, -16
	movq	%rsp, %rbp
	.cfi_def_cfa_register %rbp
	movq	%rdi, -8(%rbp)
Ltmp301:
	.loc	7 497 1 prologue_end epilogue_begin
	popq	%rbp
	retq
Ltmp302:
Lfunc_end43:
	.cfi_endproc

	.p2align	4, 0x90
__ZN4core3ptr437drop_in_place$LT$hashbrown..raw..RawTable$LT$$LP$u32$C$sigalign..algorithm..anchor..AnchorTable$RP$$GT$..find_or_find_insert_slot$LT$hashbrown..map..equivalent_key$LT$u32$C$u32$C$sigalign..algorithm..anchor..AnchorTable$GT$..$u7b$$u7b$closure$u7d$$u7d$$C$hashbrown..map..make_hasher$LT$u32$C$sigalign..algorithm..anchor..AnchorTable$C$ahash..random_state..RandomState$GT$..$u7b$$u7b$closure$u7d$$u7d$$GT$..$u7b$$u7b$closure$u7d$$u7d$$GT$17h78407bbd0a52f4c4E:
Lfunc_begin44:
	.loc	7 497 0
	.cfi_startproc
	pushq	%rbp
	.cfi_def_cfa_offset 16
	.cfi_offset %rbp, -16
	movq	%rsp, %rbp
	.cfi_def_cfa_register %rbp
	movq	%rdi, -8(%rbp)
Ltmp303:
	.loc	7 497 1 prologue_end epilogue_begin
	popq	%rbp
	retq
Ltmp304:
Lfunc_end44:
	.cfi_endproc

	.p2align	4, 0x90
__ZN4core3ptr61drop_in_place$LT$sigalign..algorithm..anchor..AnchorTable$GT$17hef8bacf63aa8f3a7E:
Lfunc_begin45:
	.loc	7 497 0
	.cfi_startproc
	pushq	%rbp
	.cfi_def_cfa_offset 16
	.cfi_offset %rbp, -16
	movq	%rsp, %rbp
	.cfi_def_cfa_register %rbp
	subq	$16, %rsp
	movq	%rdi, -8(%rbp)
Ltmp305:
	.loc	7 497 1 prologue_end
	callq	__ZN4core3ptr102drop_in_place$LT$alloc..vec..Vec$LT$alloc..vec..Vec$LT$sigalign..algorithm..anchor..Anchor$GT$$GT$$GT$17hd4a61a7da876b4f6E
	.loc	7 497 1 epilogue_begin is_stmt 0
	addq	$16, %rsp
	popq	%rbp
	retq
Ltmp306:
Lfunc_end45:
	.cfi_endproc

	.p2align	4, 0x90
__ZN4core3ptr61drop_in_place$LT$sigalign..reference..ReferenceBuildError$GT$17he3ca6af3ad5f1362E:
Lfunc_begin46:
	.loc	7 497 0 is_stmt 1
	.cfi_startproc
	pushq	%rbp
	.cfi_def_cfa_offset 16
	.cfi_offset %rbp, -16
	movq	%rsp, %rbp
	.cfi_def_cfa_register %rbp
	subq	$16, %rsp
	movq	%rdi, -16(%rbp)
	movq	%rdi, -8(%rbp)
Ltmp307:
	.loc	7 497 1 prologue_end
	xorl	%eax, %eax
	movl	$1, %ecx
	cmpl	$4, (%rdi)
	cmoveq	%rcx, %rax
	cmpq	$0, %rax
	jne	LBB46_2
	.loc	7 0 1 is_stmt 0
	movq	-16(%rbp), %rdi
	.loc	7 497 1
	callq	__ZN4core3ptr79drop_in_place$LT$sigalign..reference..pattern_index..PatternIndexBuildError$GT$17hb7a1c9be3470775bE
	jmp	LBB46_3
LBB46_2:
	.loc	7 0 1
	movq	-16(%rbp), %rdi
	.loc	7 497 1
	addq	$8, %rdi
	callq	__ZN4core3ptr42drop_in_place$LT$std..io..error..Error$GT$17hca8fd153d8e9fafaE
LBB46_3:
	.loc	7 497 1 epilogue_begin
	addq	$16, %rsp
	popq	%rbp
	retq
Ltmp308:
Lfunc_end46:
	.cfi_endproc

	.p2align	4, 0x90
__ZN4core3ptr65drop_in_place$LT$sigalign..aligner..regulator..RegulatorError$GT$17h1747aa0e19bbcf72E:
Lfunc_begin47:
	.loc	7 497 0 is_stmt 1
	.cfi_startproc
	pushq	%rbp
	.cfi_def_cfa_offset 16
	.cfi_offset %rbp, -16
	movq	%rsp, %rbp
	.cfi_def_cfa_register %rbp
	movq	%rdi, -8(%rbp)
Ltmp309:
	.loc	7 497 1 prologue_end epilogue_begin
	popq	%rbp
	retq
Ltmp310:
Lfunc_end47:
	.cfi_endproc

	.p2align	4, 0x90
__ZN4core3ptr75drop_in_place$LT$$LP$u32$C$sigalign..algorithm..anchor..AnchorTable$RP$$GT$17he7fb4dc32d404540E:
Lfunc_begin48:
	.loc	7 497 0
	.cfi_startproc
	pushq	%rbp
	.cfi_def_cfa_offset 16
	.cfi_offset %rbp, -16
	movq	%rsp, %rbp
	.cfi_def_cfa_register %rbp
	subq	$16, %rsp
	movq	%rdi, -8(%rbp)
Ltmp311:
	.loc	7 497 1 prologue_end
	addq	$8, %rdi
	callq	__ZN4core3ptr61drop_in_place$LT$sigalign..algorithm..anchor..AnchorTable$GT$17hef8bacf63aa8f3a7E
	.loc	7 497 1 epilogue_begin is_stmt 0
	addq	$16, %rsp
	popq	%rbp
	retq
Ltmp312:
Lfunc_end48:
	.cfi_endproc

	.p2align	4, 0x90
__ZN4core3ptr85drop_in_place$LT$std..rt..lang_start$LT$$LP$$RP$$GT$..$u7b$$u7b$closure$u7d$$u7d$$GT$17hcaad1c162eabfb26E:
Lfunc_begin49:
	.loc	7 497 0 is_stmt 1
	.cfi_startproc
	pushq	%rbp
	.cfi_def_cfa_offset 16
	.cfi_offset %rbp, -16
	movq	%rsp, %rbp
	.cfi_def_cfa_register %rbp
	movq	%rdi, -8(%rbp)
Ltmp313:
	.loc	7 497 1 prologue_end epilogue_begin
	popq	%rbp
	retq
Ltmp314:
Lfunc_end49:
	.cfi_endproc

	.p2align	4, 0x90
__ZN4core3ptr89drop_in_place$LT$core..option..Option$LT$sigalign..algorithm..anchor..AnchorTable$GT$$GT$17hbc5a8b7d0de8a1e7E:
Lfunc_begin50:
	.loc	7 497 0
	.cfi_startproc
	pushq	%rbp
	.cfi_def_cfa_offset 16
	.cfi_offset %rbp, -16
	movq	%rsp, %rbp
	.cfi_def_cfa_register %rbp
	subq	$16, %rsp
	movq	%rdi, -16(%rbp)
	movq	%rdi, -8(%rbp)
Ltmp315:
	.loc	7 497 1 prologue_end
	movq	(%rdi), %rdx
	movl	$1, %eax
	xorl	%ecx, %ecx
	cmpq	$0, %rdx
	cmoveq	%rcx, %rax
	cmpq	$0, %rax
	jne	LBB50_2
LBB50_1:
	.loc	7 497 1 epilogue_begin is_stmt 0
	addq	$16, %rsp
	popq	%rbp
	retq
LBB50_2:
	.loc	7 0 1
	movq	-16(%rbp), %rdi
	.loc	7 497 1
	callq	__ZN4core3ptr61drop_in_place$LT$sigalign..algorithm..anchor..AnchorTable$GT$17hef8bacf63aa8f3a7E
	jmp	LBB50_1
Ltmp316:
Lfunc_end50:
	.cfi_endproc

	.p2align	4, 0x90
__ZN4core3ptr91drop_in_place$LT$alloc..vec..into_iter..IntoIter$LT$sigalign..core..PatternLocation$GT$$GT$17hf3bf22e1ab0b3a11E:
Lfunc_begin51:
	.loc	7 497 0 is_stmt 1
	.cfi_startproc
	pushq	%rbp
	.cfi_def_cfa_offset 16
	.cfi_offset %rbp, -16
	movq	%rsp, %rbp
	.cfi_def_cfa_register %rbp
	subq	$16, %rsp
	movq	%rdi, -8(%rbp)
Ltmp317:
	.loc	7 497 1 prologue_end
	callq	__ZN86_$LT$alloc..vec..into_iter..IntoIter$LT$T$C$A$GT$$u20$as$u20$core..ops..drop..Drop$GT$4drop17hfcabc6b2a9573b22E
	.loc	7 497 1 epilogue_begin is_stmt 0
	addq	$16, %rsp
	popq	%rbp
	retq
Ltmp318:
Lfunc_end51:
	.cfi_endproc

	.p2align	4, 0x90
__ZN4core4iter6traits10exact_size17ExactSizeIterator3len17hbd1ec8db41c89859E:
Lfunc_begin52:
	.file	35 "/rustc/cc66ad468955717ab92600c770da8c1601a4ff33/library/core/src/iter/traits" "exact_size.rs"
	.loc	35 116 0 is_stmt 1
	.cfi_startproc
	pushq	%rbp
	.cfi_def_cfa_offset 16
	.cfi_offset %rbp, -16
	movq	%rsp, %rbp
	.cfi_def_cfa_register %rbp
	subq	$176, %rsp
	movq	%rdi, %rsi
Ltmp319:
	.loc	35 122 9 prologue_end
	movb	$0, -145(%rbp)
	movq	%rsi, -32(%rbp)
	leaq	-128(%rbp), %rdi
Ltmp320:
	.loc	35 117 30
	callq	__ZN103_$LT$alloc..vec..into_iter..IntoIter$LT$T$C$A$GT$$u20$as$u20$core..iter..traits..iterator..Iterator$GT$9size_hint17hba0392c1a34bd35dE
	.loc	35 117 14 is_stmt 0
	movq	-128(%rbp), %rax
	movq	%rax, -168(%rbp)
	movq	%rax, -24(%rbp)
	.loc	35 117 21
	movq	-120(%rbp), %rdx
	movq	-112(%rbp), %rcx
	movq	%rdx, -144(%rbp)
	movq	%rcx, -136(%rbp)
	leaq	-144(%rbp), %rcx
Ltmp321:
	.loc	35 122 9 is_stmt 1
	movq	%rcx, -16(%rbp)
	.loc	35 122 27 is_stmt 0
	movq	%rax, -96(%rbp)
	movq	$1, -104(%rbp)
	leaq	-104(%rbp), %rax
	.loc	35 122 9
	movq	%rax, -8(%rbp)
Ltmp322:
	.file	36 "/rustc/cc66ad468955717ab92600c770da8c1601a4ff33/library/core/src" "option.rs"
	.loc	36 2168 15 is_stmt 1
	movq	-144(%rbp), %rax
	movq	%rax, -160(%rbp)
	.loc	36 2168 9 is_stmt 0
	testq	%rax, %rax
	je	LBB52_2
	jmp	LBB52_8
LBB52_8:
	.loc	36 0 9
	movq	-160(%rbp), %rax
	.loc	36 2168 9
	subq	$1, %rax
	je	LBB52_3
	jmp	LBB52_1
LBB52_1:
	.loc	36 2171 18 is_stmt 1
	movb	$0, -81(%rbp)
	jmp	LBB52_4
LBB52_2:
	.loc	36 2170 29
	cmpq	$0, -104(%rbp)
	sete	%al
	andb	$1, %al
	movb	%al, -81(%rbp)
	.loc	36 2168 9
	jmp	LBB52_4
LBB52_3:
	cmpq	$1, -104(%rbp)
	je	LBB52_5
	jmp	LBB52_1
Ltmp323:
LBB52_4:
	.loc	35 122 9
	movb	-81(%rbp), %al
	xorb	$-1, %al
	testb	$1, %al
	jne	LBB52_7
	jmp	LBB52_6
LBB52_5:
Ltmp324:
	.loc	20 1298 5
	movq	-136(%rbp), %rax
	cmpq	-96(%rbp), %rax
	sete	%al
	andb	$1, %al
	movb	%al, -81(%rbp)
Ltmp325:
	.loc	36 2173 6
	jmp	LBB52_4
LBB52_6:
	.loc	36 0 6 is_stmt 0
	movq	-168(%rbp), %rax
	.loc	35 124 6 epilogue_begin is_stmt 1
	addq	$176, %rsp
	popq	%rbp
	retq
LBB52_7:
Ltmp326:
	.loc	35 122 9
	movq	$0, -80(%rbp)
	leaq	l___unnamed_10(%rip), %r8
	xorl	%edi, %edi
	leaq	-144(%rbp), %rsi
	leaq	-104(%rbp), %rdx
	leaq	-80(%rbp), %rcx
	callq	__ZN4core9panicking13assert_failed17h7e2a35584bbc22a9E
Ltmp327:
Lfunc_end52:
	.cfi_endproc
	.file	37 "/rustc/cc66ad468955717ab92600c770da8c1601a4ff33/library/core/src/macros" "mod.rs"

	.p2align	4, 0x90
__ZN4core4iter6traits8iterator8Iterator10filter_map17h594e48cde47b7b05E:
Lfunc_begin53:
	.file	38 "/rustc/cc66ad468955717ab92600c770da8c1601a4ff33/library/core/src/iter/traits" "iterator.rs"
	.loc	38 969 0
	.cfi_startproc
	pushq	%rbp
	.cfi_def_cfa_offset 16
	.cfi_offset %rbp, -16
	movq	%rsp, %rbp
	.cfi_def_cfa_register %rbp
	subq	$32, %rsp
	movq	%rdx, -16(%rbp)
	movq	%rdi, -24(%rbp)
	movq	%rdi, %rax
	movq	%rax, -8(%rbp)
Ltmp328:
	.loc	26 22 9 prologue_end
	movl	$40, %edx
	callq	_memcpy
Ltmp329:
	.loc	26 0 9 is_stmt 0
	movq	-24(%rbp), %rdi
	movq	-16(%rbp), %rsi
	.loc	26 22 9
	addq	$40, %rdi
	movl	$96, %edx
	callq	_memcpy
	movq	-8(%rbp), %rax
Ltmp330:
	.loc	38 975 6 epilogue_begin is_stmt 1
	addq	$32, %rsp
	popq	%rbp
	retq
Ltmp331:
Lfunc_end53:
	.cfi_endproc

	.p2align	4, 0x90
__ZN4core4iter6traits8iterator8Iterator10filter_map17h82fadabc435818ffE:
Lfunc_begin54:
	.loc	38 969 0
	.cfi_startproc
	pushq	%rbp
	.cfi_def_cfa_offset 16
	.cfi_offset %rbp, -16
	movq	%rsp, %rbp
	.cfi_def_cfa_register %rbp
	subq	$32, %rsp
	movq	%rdx, -16(%rbp)
	movq	%rdi, -24(%rbp)
	movq	%rdi, %rax
	movq	%rax, -8(%rbp)
Ltmp332:
	.loc	26 22 9 prologue_end
	movl	$40, %edx
	callq	_memcpy
Ltmp333:
	.loc	26 0 9 is_stmt 0
	movq	-24(%rbp), %rdi
	movq	-16(%rbp), %rsi
	.loc	26 22 9
	addq	$40, %rdi
	movl	$112, %edx
	callq	_memcpy
	movq	-8(%rbp), %rax
Ltmp334:
	.loc	38 975 6 epilogue_begin is_stmt 1
	addq	$32, %rsp
	popq	%rbp
	retq
Ltmp335:
Lfunc_end54:
	.cfi_endproc

	.p2align	4, 0x90
__ZN4core4iter6traits8iterator8Iterator4fold17h874d7ddf04987365E:
Lfunc_begin55:
	.loc	38 2632 0
	.cfi_startproc
	.cfi_personality 155, _rust_eh_personality
	.cfi_lsda 16, Lexception8
	pushq	%rbp
	.cfi_def_cfa_offset 16
	.cfi_offset %rbp, -16
	movq	%rsp, %rbp
	.cfi_def_cfa_register %rbp
	subq	$144, %rsp
	movq	%rdi, -136(%rbp)
Ltmp346:
	movq	%rsi, -128(%rbp)
Ltmp347:
	.loc	38 2637 25 prologue_end
	movb	$1, -19(%rbp)
Ltmp348:
LBB55_1:
Ltmp336:
	.loc	38 0 25 is_stmt 0
	movq	-136(%rbp), %rsi
	leaq	-120(%rbp), %rdi
Ltmp349:
	.loc	38 2638 29 is_stmt 1
	callq	__ZN103_$LT$alloc..vec..into_iter..IntoIter$LT$T$C$A$GT$$u20$as$u20$core..iter..traits..iterator..Iterator$GT$4next17h00c5a61083f88b11E
Ltmp337:
	jmp	LBB55_4
Ltmp350:
LBB55_2:
	.loc	38 2642 5
	testb	$1, -19(%rbp)
	jne	LBB55_11
	jmp	LBB55_10
Ltmp351:
LBB55_3:
Ltmp342:
	.loc	38 0 5 is_stmt 0
	movq	%rax, %rcx
	movl	%edx, %eax
	movq	%rcx, -16(%rbp)
	movl	%eax, -8(%rbp)
	jmp	LBB55_2
Ltmp352:
LBB55_4:
	.loc	38 2638 19 is_stmt 1
	movq	-120(%rbp), %rdx
	movl	$1, %eax
	xorl	%ecx, %ecx
	cmpq	$0, %rdx
	cmoveq	%rcx, %rax
	cmpq	$1, %rax
	jne	LBB55_6
Ltmp353:
	.loc	38 0 19 is_stmt 0
	movq	-128(%rbp), %rdi
	.loc	38 2638 24
	movq	-96(%rbp), %rax
	movq	%rax, -64(%rbp)
	movq	-104(%rbp), %rax
	movq	%rax, -72(%rbp)
	movq	-120(%rbp), %rax
	movq	-112(%rbp), %rcx
	movq	%rcx, -80(%rbp)
	movq	%rax, -88(%rbp)
	.loc	38 2639 23 is_stmt 1
	movb	$0, -19(%rbp)
	.loc	38 2639 21 is_stmt 0
	movq	-64(%rbp), %rax
	movq	%rax, -32(%rbp)
	movq	-72(%rbp), %rax
	movq	%rax, -40(%rbp)
	movq	-88(%rbp), %rax
	movq	-80(%rbp), %rcx
	movq	%rcx, -48(%rbp)
	movq	%rax, -56(%rbp)
Ltmp340:
	leaq	-56(%rbp), %rsi
	callq	__ZN4core4iter6traits8iterator8Iterator8for_each4call28_$u7b$$u7b$closure$u7d$$u7d$17hf33ffa9c6ddf18adE
Ltmp341:
	jmp	LBB55_7
Ltmp354:
LBB55_6:
Ltmp338:
	.loc	38 0 21
	leaq	-120(%rbp), %rdi
	.loc	38 2638 9 is_stmt 1
	callq	__ZN4core3ptr80drop_in_place$LT$core..option..Option$LT$sigalign..core..PatternLocation$GT$$GT$17h207014c1b3c60e97E
Ltmp339:
	jmp	LBB55_8
Ltmp355:
LBB55_7:
	.loc	38 2639 13
	movb	$1, -19(%rbp)
Ltmp356:
	.loc	38 2638 9
	jmp	LBB55_1
Ltmp357:
LBB55_8:
	.loc	38 2642 5
	jmp	LBB55_9
Ltmp358:
LBB55_9:
	.loc	38 0 5 is_stmt 0
	movq	-136(%rbp), %rdi
	.loc	38 2642 5
	callq	__ZN4core3ptr91drop_in_place$LT$alloc..vec..into_iter..IntoIter$LT$sigalign..core..PatternLocation$GT$$GT$17hf3bf22e1ab0b3a11E
	.loc	38 2642 6 epilogue_begin
	addq	$144, %rsp
	popq	%rbp
	retq
Ltmp359:
LBB55_10:
	.loc	38 2642 5
	jmp	LBB55_12
Ltmp360:
LBB55_11:
	jmp	LBB55_10
Ltmp361:
LBB55_12:
Ltmp343:
	.loc	38 0 5
	movq	-136(%rbp), %rdi
	.loc	38 2642 5
	callq	__ZN4core3ptr91drop_in_place$LT$alloc..vec..into_iter..IntoIter$LT$sigalign..core..PatternLocation$GT$$GT$17hf3bf22e1ab0b3a11E
Ltmp344:
	jmp	LBB55_14
Ltmp362:
LBB55_13:
Ltmp345:
	.loc	38 2632 5 is_stmt 1
	callq	__ZN4core9panicking19panic_cannot_unwind17h0477e80cce5de375E
Ltmp363:
LBB55_14:
	movq	-16(%rbp), %rdi
	callq	__Unwind_Resume
Ltmp364:
Lfunc_end55:
	.cfi_endproc
	.section	__TEXT,__gcc_except_tab
	.p2align	2, 0x0
GCC_except_table55:
Lexception8:
	.byte	255
	.byte	155
	.uleb128 Lttbase3-Lttbaseref3
Lttbaseref3:
	.byte	1
	.uleb128 Lcst_end8-Lcst_begin8
Lcst_begin8:
	.uleb128 Ltmp336-Lfunc_begin55
	.uleb128 Ltmp339-Ltmp336
	.uleb128 Ltmp342-Lfunc_begin55
	.byte	0
	.uleb128 Ltmp339-Lfunc_begin55
	.uleb128 Ltmp343-Ltmp339
	.byte	0
	.byte	0
	.uleb128 Ltmp343-Lfunc_begin55
	.uleb128 Ltmp344-Ltmp343
	.uleb128 Ltmp345-Lfunc_begin55
	.byte	1
	.uleb128 Ltmp344-Lfunc_begin55
	.uleb128 Lfunc_end55-Ltmp344
	.byte	0
	.byte	0
Lcst_end8:
	.byte	127
	.byte	0
	.p2align	2, 0x0
Lttbase3:
	.byte	0
	.p2align	2, 0x0

	.section	__TEXT,__text,regular,pure_instructions
	.p2align	4, 0x90
__ZN4core4iter6traits8iterator8Iterator4fold17h9b45adafcd46a851E:
Lfunc_begin56:
	.loc	38 2632 0
	.cfi_startproc
	.cfi_personality 155, _rust_eh_personality
	.cfi_lsda 16, Lexception9
	pushq	%rbp
	.cfi_def_cfa_offset 16
	.cfi_offset %rbp, -16
	movq	%rsp, %rbp
	.cfi_def_cfa_register %rbp
	subq	$112, %rsp
	movq	%rdi, -88(%rbp)
Ltmp370:
	movq	%rsi, -80(%rbp)
Ltmp371:
	.loc	38 2637 25 prologue_end
	movb	$1, -35(%rbp)
Ltmp372:
LBB56_1:
Ltmp365:
	.loc	38 0 25 is_stmt 0
	movq	-88(%rbp), %rdi
Ltmp373:
	.loc	38 2638 29 is_stmt 1
	callq	__ZN108_$LT$std..collections..hash..map..IterMut$LT$K$C$V$GT$$u20$as$u20$core..iter..traits..iterator..Iterator$GT$4next17hed696404cdd154dcE
Ltmp366:
	movq	%rdx, -104(%rbp)
	movq	%rax, -96(%rbp)
	jmp	LBB56_4
Ltmp374:
LBB56_2:
	.loc	38 2642 5
	testb	$1, -35(%rbp)
	jne	LBB56_11
	jmp	LBB56_10
Ltmp375:
LBB56_3:
Ltmp369:
	.loc	38 0 5 is_stmt 0
	movq	%rax, %rcx
	movl	%edx, %eax
	movq	%rcx, -32(%rbp)
	movl	%eax, -24(%rbp)
	jmp	LBB56_2
Ltmp376:
LBB56_4:
	movq	-104(%rbp), %rax
	movq	-96(%rbp), %rcx
Ltmp377:
	.loc	38 2638 29 is_stmt 1
	movq	%rcx, -72(%rbp)
	movq	%rax, -64(%rbp)
	.loc	38 2638 19 is_stmt 0
	movq	-72(%rbp), %rdx
	movl	$1, %eax
	xorl	%ecx, %ecx
	cmpq	$0, %rdx
	cmoveq	%rcx, %rax
	cmpq	$1, %rax
	jne	LBB56_6
Ltmp378:
	.loc	38 2638 24
	movq	-72(%rbp), %rcx
	movq	-64(%rbp), %rax
	movq	%rcx, -16(%rbp)
	movq	%rax, -8(%rbp)
	.loc	38 2639 23 is_stmt 1
	movb	$0, -35(%rbp)
	.loc	38 2639 21 is_stmt 0
	movq	%rcx, -56(%rbp)
	movq	%rax, -48(%rbp)
	movq	-56(%rbp), %rsi
	movq	-48(%rbp), %rdx
Ltmp367:
	leaq	-80(%rbp), %rdi
	callq	__ZN4core4iter6traits8iterator8Iterator8for_each4call28_$u7b$$u7b$closure$u7d$$u7d$17h71eeac26a817bc6dE
Ltmp368:
	jmp	LBB56_7
Ltmp379:
LBB56_6:
	.loc	38 2638 9 is_stmt 1
	jmp	LBB56_8
Ltmp380:
LBB56_7:
	.loc	38 2639 13
	movb	$1, -35(%rbp)
Ltmp381:
	.loc	38 2638 9
	jmp	LBB56_1
Ltmp382:
LBB56_8:
	.loc	38 2642 5
	jmp	LBB56_9
Ltmp383:
LBB56_9:
	.loc	38 2642 6 epilogue_begin is_stmt 0
	addq	$112, %rsp
	popq	%rbp
	retq
Ltmp384:
LBB56_10:
	.loc	38 2642 5
	jmp	LBB56_12
Ltmp385:
LBB56_11:
	jmp	LBB56_10
Ltmp386:
LBB56_12:
	.loc	38 2632 5 is_stmt 1
	movq	-32(%rbp), %rdi
	callq	__Unwind_Resume
Ltmp387:
Lfunc_end56:
	.cfi_endproc
	.section	__TEXT,__gcc_except_tab
	.p2align	2, 0x0
GCC_except_table56:
Lexception9:
	.byte	255
	.byte	255
	.byte	1
	.uleb128 Lcst_end9-Lcst_begin9
Lcst_begin9:
	.uleb128 Ltmp365-Lfunc_begin56
	.uleb128 Ltmp368-Ltmp365
	.uleb128 Ltmp369-Lfunc_begin56
	.byte	0
	.uleb128 Ltmp368-Lfunc_begin56
	.uleb128 Lfunc_end56-Ltmp368
	.byte	0
	.byte	0
Lcst_end9:
	.p2align	2, 0x0

	.section	__TEXT,__text,regular,pure_instructions
	.p2align	4, 0x90
__ZN4core4iter6traits8iterator8Iterator4fold17hc272444f4dd42863E:
Lfunc_begin57:
	.loc	38 2632 0
	.cfi_startproc
	.cfi_personality 155, _rust_eh_personality
	.cfi_lsda 16, Lexception10
	pushq	%rbp
	.cfi_def_cfa_offset 16
	.cfi_offset %rbp, -16
	movq	%rsp, %rbp
	.cfi_def_cfa_register %rbp
	subq	$96, %rsp
	movq	%rdx, -80(%rbp)
Ltmp393:
	movq	%rdi, -72(%rbp)
	movq	%rsi, -64(%rbp)
Ltmp394:
	.loc	38 2637 25 prologue_end
	movb	$1, -27(%rbp)
Ltmp395:
LBB57_1:
Ltmp388:
	.loc	38 0 25 is_stmt 0
	leaq	-72(%rbp), %rdi
Ltmp396:
	.loc	38 2638 29 is_stmt 1
	callq	__ZN4core4iter5range101_$LT$impl$u20$core..iter..traits..iterator..Iterator$u20$for$u20$core..ops..range..Range$LT$A$GT$$GT$4next17h72c0b801d47932d4E
Ltmp389:
	movq	%rdx, -96(%rbp)
	movq	%rax, -88(%rbp)
	jmp	LBB57_4
Ltmp397:
LBB57_2:
	.loc	38 2642 5
	testb	$1, -27(%rbp)
	jne	LBB57_11
	jmp	LBB57_10
Ltmp398:
LBB57_3:
Ltmp392:
	.loc	38 0 5 is_stmt 0
	movq	%rax, %rcx
	movl	%edx, %eax
	movq	%rcx, -24(%rbp)
	movl	%eax, -16(%rbp)
	jmp	LBB57_2
Ltmp399:
LBB57_4:
	movq	-96(%rbp), %rax
	movq	-88(%rbp), %rcx
Ltmp400:
	.loc	38 2638 29 is_stmt 1
	movq	%rcx, -56(%rbp)
	movq	%rax, -48(%rbp)
	.loc	38 2638 19 is_stmt 0
	cmpq	$1, -56(%rbp)
	jne	LBB57_6
Ltmp401:
	.loc	38 0 19
	movq	-80(%rbp), %rdi
	.loc	38 2638 24
	movq	-48(%rbp), %rax
	movq	%rax, -8(%rbp)
	.loc	38 2639 23 is_stmt 1
	movb	$0, -27(%rbp)
	.loc	38 2639 21 is_stmt 0
	movq	%rax, -40(%rbp)
	movq	-40(%rbp), %rsi
Ltmp390:
	callq	__ZN4core4iter6traits8iterator8Iterator8for_each4call28_$u7b$$u7b$closure$u7d$$u7d$17hfed69ee241698927E
Ltmp391:
	jmp	LBB57_7
Ltmp402:
LBB57_6:
	.loc	38 2638 9 is_stmt 1
	jmp	LBB57_8
Ltmp403:
LBB57_7:
	.loc	38 2639 13
	movb	$1, -27(%rbp)
Ltmp404:
	.loc	38 2638 9
	jmp	LBB57_1
Ltmp405:
LBB57_8:
	.loc	38 2642 5
	jmp	LBB57_9
Ltmp406:
LBB57_9:
	.loc	38 2642 6 epilogue_begin is_stmt 0
	addq	$96, %rsp
	popq	%rbp
	retq
Ltmp407:
LBB57_10:
	.loc	38 2642 5
	jmp	LBB57_12
Ltmp408:
LBB57_11:
	jmp	LBB57_10
Ltmp409:
LBB57_12:
	.loc	38 2632 5 is_stmt 1
	movq	-24(%rbp), %rdi
	callq	__Unwind_Resume
Ltmp410:
Lfunc_end57:
	.cfi_endproc
	.section	__TEXT,__gcc_except_tab
	.p2align	2, 0x0
GCC_except_table57:
Lexception10:
	.byte	255
	.byte	255
	.byte	1
	.uleb128 Lcst_end10-Lcst_begin10
Lcst_begin10:
	.uleb128 Ltmp388-Lfunc_begin57
	.uleb128 Ltmp391-Ltmp388
	.uleb128 Ltmp392-Lfunc_begin57
	.byte	0
	.uleb128 Ltmp391-Lfunc_begin57
	.uleb128 Lfunc_end57-Ltmp391
	.byte	0
	.byte	0
Lcst_end10:
	.p2align	2, 0x0

	.section	__TEXT,__text,regular,pure_instructions
	.p2align	4, 0x90
__ZN4core4iter6traits8iterator8Iterator7collect17h6877e8068010f103E:
Lfunc_begin58:
	.loc	38 2049 0
	.cfi_startproc
	pushq	%rbp
	.cfi_def_cfa_offset 16
	.cfi_offset %rbp, -16
	movq	%rsp, %rbp
	.cfi_def_cfa_register %rbp
	subq	$16, %rsp
	movq	%rdi, %rax
	movq	%rax, -8(%rbp)
Ltmp411:
	.loc	38 2053 9 prologue_end
	callq	__ZN95_$LT$alloc..vec..Vec$LT$T$GT$$u20$as$u20$core..iter..traits..collect..FromIterator$LT$T$GT$$GT$9from_iter17h6c436f7cfcec337fE
Ltmp412:
	.loc	38 0 9 is_stmt 0
	movq	-8(%rbp), %rax
	.loc	38 2054 6 epilogue_begin is_stmt 1
	addq	$16, %rsp
	popq	%rbp
	retq
Ltmp413:
Lfunc_end58:
	.cfi_endproc

	.p2align	4, 0x90
__ZN4core4iter6traits8iterator8Iterator7collect17h87ea7e5b8f055474E:
Lfunc_begin59:
	.loc	38 2049 0
	.cfi_startproc
	pushq	%rbp
	.cfi_def_cfa_offset 16
	.cfi_offset %rbp, -16
	movq	%rsp, %rbp
	.cfi_def_cfa_register %rbp
	subq	$16, %rsp
	movq	%rdi, %rax
	movq	%rax, -8(%rbp)
Ltmp414:
	.loc	38 2053 9 prologue_end
	callq	__ZN95_$LT$alloc..vec..Vec$LT$T$GT$$u20$as$u20$core..iter..traits..collect..FromIterator$LT$T$GT$$GT$9from_iter17had44d8675a12fc62E
Ltmp415:
	.loc	38 0 9 is_stmt 0
	movq	-8(%rbp), %rax
	.loc	38 2054 6 epilogue_begin is_stmt 1
	addq	$16, %rsp
	popq	%rbp
	retq
Ltmp416:
Lfunc_end59:
	.cfi_endproc

	.p2align	4, 0x90
__ZN4core4iter6traits8iterator8Iterator8find_map17h12de1dbd149a743fE:
Lfunc_begin60:
	.loc	38 2950 0
	.cfi_startproc
	pushq	%rbp
	.cfi_def_cfa_offset 16
	.cfi_offset %rbp, -16
	movq	%rsp, %rbp
	.cfi_def_cfa_register %rbp
	subq	$112, %rsp
	movq	%rdi, -104(%rbp)
	movq	%rdi, -96(%rbp)
	movq	%rsi, -16(%rbp)
	movq	%rdx, -8(%rbp)
Ltmp417:
	.loc	38 2957 13 prologue_end
	movq	%rdx, -56(%rbp)
Ltmp418:
	.loc	38 2963 9
	movq	-56(%rbp), %rdx
	leaq	-88(%rbp), %rdi
	callq	__ZN4core4iter6traits8iterator8Iterator8try_fold17h96bbc80ac177145cE
Ltmp419:
	.loc	14 181 15
	movq	-88(%rbp), %rdx
	movl	$1, %eax
	xorl	%ecx, %ecx
	cmpq	$0, %rdx
	cmoveq	%rcx, %rax
	.loc	14 181 9 is_stmt 0
	cmpq	$0, %rax
	jne	LBB60_2
	.loc	14 0 9
	movq	-104(%rbp), %rax
	.loc	14 182 42 is_stmt 1
	movq	$0, (%rax)
	jmp	LBB60_3
LBB60_2:
	.loc	14 0 42 is_stmt 0
	movq	-104(%rbp), %rax
	.loc	14 183 32 is_stmt 1
	movq	-88(%rbp), %rcx
	movq	%rcx, -48(%rbp)
	movq	-80(%rbp), %rcx
	movq	%rcx, -40(%rbp)
	movq	-72(%rbp), %rcx
	movq	%rcx, -32(%rbp)
	movq	-64(%rbp), %rcx
	movq	%rcx, -24(%rbp)
Ltmp420:
	.loc	14 183 38 is_stmt 0
	movq	-48(%rbp), %rcx
	movq	%rcx, (%rax)
	movq	-40(%rbp), %rcx
	movq	%rcx, 8(%rax)
	movq	-32(%rbp), %rcx
	movq	%rcx, 16(%rax)
	movq	-24(%rbp), %rcx
	movq	%rcx, 24(%rax)
Ltmp421:
LBB60_3:
	.loc	14 185 5 is_stmt 1
	movq	-88(%rbp), %rdx
	movl	$1, %eax
	xorl	%ecx, %ecx
	cmpq	$0, %rdx
	cmoveq	%rcx, %rax
	cmpq	$1, %rax
	jne	LBB60_5
Ltmp422:
LBB60_4:
	.loc	14 0 5 is_stmt 0
	movq	-96(%rbp), %rax
	.loc	38 2964 6 epilogue_begin is_stmt 1
	addq	$112, %rsp
	popq	%rbp
	retq
LBB60_5:
Ltmp423:
	.loc	14 185 5
	leaq	-88(%rbp), %rdi
	callq	__ZN4core3ptr105drop_in_place$LT$core..ops..control_flow..ControlFlow$LT$sigalign..results..TargetAlignmentResult$GT$$GT$17heed029e8c29452ccE
	jmp	LBB60_4
Ltmp424:
Lfunc_end60:
	.cfi_endproc

	.p2align	4, 0x90
__ZN4core4iter6traits8iterator8Iterator8find_map17h766ffe2aa050444dE:
Lfunc_begin61:
	.loc	38 2950 0
	.cfi_startproc
	pushq	%rbp
	.cfi_def_cfa_offset 16
	.cfi_offset %rbp, -16
	movq	%rsp, %rbp
	.cfi_def_cfa_register %rbp
	subq	$112, %rsp
	movq	%rdi, -104(%rbp)
	movq	%rdi, -96(%rbp)
	movq	%rsi, -16(%rbp)
	movq	%rdx, -8(%rbp)
Ltmp425:
	.loc	38 2957 13 prologue_end
	movq	%rdx, -56(%rbp)
Ltmp426:
	.loc	38 2963 9
	movq	-56(%rbp), %rdx
	leaq	-88(%rbp), %rdi
	callq	__ZN4core4iter6traits8iterator8Iterator8try_fold17hdf754441f30ef12aE
Ltmp427:
	.loc	14 181 15
	movq	-88(%rbp), %rdx
	movl	$1, %eax
	xorl	%ecx, %ecx
	cmpq	$0, %rdx
	cmoveq	%rcx, %rax
	.loc	14 181 9 is_stmt 0
	cmpq	$0, %rax
	jne	LBB61_2
	.loc	14 0 9
	movq	-104(%rbp), %rax
	.loc	14 182 42 is_stmt 1
	movq	$0, (%rax)
	jmp	LBB61_3
LBB61_2:
	.loc	14 0 42 is_stmt 0
	movq	-104(%rbp), %rax
	.loc	14 183 32 is_stmt 1
	movq	-88(%rbp), %rcx
	movq	%rcx, -48(%rbp)
	movq	-80(%rbp), %rcx
	movq	%rcx, -40(%rbp)
	movq	-72(%rbp), %rcx
	movq	%rcx, -32(%rbp)
	movq	-64(%rbp), %rcx
	movq	%rcx, -24(%rbp)
Ltmp428:
	.loc	14 183 38 is_stmt 0
	movq	-48(%rbp), %rcx
	movq	%rcx, (%rax)
	movq	-40(%rbp), %rcx
	movq	%rcx, 8(%rax)
	movq	-32(%rbp), %rcx
	movq	%rcx, 16(%rax)
	movq	-24(%rbp), %rcx
	movq	%rcx, 24(%rax)
Ltmp429:
LBB61_3:
	.loc	14 185 5 is_stmt 1
	movq	-88(%rbp), %rdx
	movl	$1, %eax
	xorl	%ecx, %ecx
	cmpq	$0, %rdx
	cmoveq	%rcx, %rax
	cmpq	$1, %rax
	jne	LBB61_5
Ltmp430:
LBB61_4:
	.loc	14 0 5 is_stmt 0
	movq	-96(%rbp), %rax
	.loc	38 2964 6 epilogue_begin is_stmt 1
	addq	$112, %rsp
	popq	%rbp
	retq
LBB61_5:
Ltmp431:
	.loc	14 185 5
	leaq	-88(%rbp), %rdi
	callq	__ZN4core3ptr105drop_in_place$LT$core..ops..control_flow..ControlFlow$LT$sigalign..results..TargetAlignmentResult$GT$$GT$17heed029e8c29452ccE
	jmp	LBB61_4
Ltmp432:
Lfunc_end61:
	.cfi_endproc

	.p2align	4, 0x90
__ZN4core4iter6traits8iterator8Iterator8find_map5check28_$u7b$$u7b$closure$u7d$$u7d$17h3f3122431c3db216E:
Lfunc_begin62:
	.loc	38 2957 0
	.cfi_startproc
	pushq	%rbp
	.cfi_def_cfa_offset 16
	.cfi_offset %rbp, -16
	movq	%rsp, %rbp
	.cfi_def_cfa_register %rbp
	subq	$128, %rsp
	movq	%rdi, -128(%rbp)
	movq	%rdi, -120(%rbp)
	movq	%rsi, -32(%rbp)
	movq	%rdx, -16(%rbp)
	movq	%rcx, -8(%rbp)
Ltmp433:
	.loc	38 2957 32 prologue_end
	movq	%rdx, -80(%rbp)
	movq	%rcx, -72(%rbp)
	movq	-80(%rbp), %rdx
	movq	-72(%rbp), %rcx
	leaq	-112(%rbp), %rdi
	callq	__ZN4core3ops8function5impls79_$LT$impl$u20$core..ops..function..FnMut$LT$A$GT$$u20$for$u20$$RF$mut$u20$F$GT$8call_mut17hc975424d53ca5781E
	movq	-112(%rbp), %rdx
	movl	$1, %eax
	xorl	%ecx, %ecx
	cmpq	$0, %rdx
	cmoveq	%rcx, %rax
	.loc	38 2957 26 is_stmt 0
	cmpq	$0, %rax
	jne	LBB62_2
	.loc	38 0 26
	movq	-128(%rbp), %rax
	.loc	38 2959 25 is_stmt 1
	movq	$0, (%rax)
	.loc	38 2959 49 is_stmt 0
	jmp	LBB62_3
LBB62_2:
	.loc	38 0 49
	movq	-128(%rbp), %rax
	.loc	38 2958 22 is_stmt 1
	movq	-112(%rbp), %rcx
	movq	%rcx, -64(%rbp)
	movq	-104(%rbp), %rcx
	movq	%rcx, -56(%rbp)
	movq	-96(%rbp), %rcx
	movq	%rcx, -48(%rbp)
	movq	-88(%rbp), %rcx
	movq	%rcx, -40(%rbp)
Ltmp434:
	.loc	38 2958 28 is_stmt 0
	movq	-64(%rbp), %rcx
	movq	%rcx, (%rax)
	movq	-56(%rbp), %rcx
	movq	%rcx, 8(%rax)
	movq	-48(%rbp), %rcx
	movq	%rcx, 16(%rax)
	movq	-40(%rbp), %rcx
	movq	%rcx, 24(%rax)
Ltmp435:
LBB62_3:
	.loc	38 0 28
	movq	-120(%rbp), %rax
	.loc	38 2960 14 epilogue_begin is_stmt 1
	addq	$128, %rsp
	popq	%rbp
	retq
Ltmp436:
Lfunc_end62:
	.cfi_endproc

	.p2align	4, 0x90
__ZN4core4iter6traits8iterator8Iterator8find_map5check28_$u7b$$u7b$closure$u7d$$u7d$17h7a0bb70b62a4b61dE:
Lfunc_begin63:
	.loc	38 2957 0
	.cfi_startproc
	pushq	%rbp
	.cfi_def_cfa_offset 16
	.cfi_offset %rbp, -16
	movq	%rsp, %rbp
	.cfi_def_cfa_register %rbp
	subq	$128, %rsp
	movq	%rdi, -128(%rbp)
	movq	%rdi, -120(%rbp)
	movq	%rsi, -32(%rbp)
	movq	%rdx, -16(%rbp)
	movq	%rcx, -8(%rbp)
Ltmp437:
	.loc	38 2957 32 prologue_end
	movq	%rdx, -80(%rbp)
	movq	%rcx, -72(%rbp)
	movq	-80(%rbp), %rdx
	movq	-72(%rbp), %rcx
	leaq	-112(%rbp), %rdi
	callq	__ZN4core3ops8function5impls79_$LT$impl$u20$core..ops..function..FnMut$LT$A$GT$$u20$for$u20$$RF$mut$u20$F$GT$8call_mut17hc9f86bad6e3861f8E
	movq	-112(%rbp), %rdx
	movl	$1, %eax
	xorl	%ecx, %ecx
	cmpq	$0, %rdx
	cmoveq	%rcx, %rax
	.loc	38 2957 26 is_stmt 0
	cmpq	$0, %rax
	jne	LBB63_2
	.loc	38 0 26
	movq	-128(%rbp), %rax
	.loc	38 2959 25 is_stmt 1
	movq	$0, (%rax)
	.loc	38 2959 49 is_stmt 0
	jmp	LBB63_3
LBB63_2:
	.loc	38 0 49
	movq	-128(%rbp), %rax
	.loc	38 2958 22 is_stmt 1
	movq	-112(%rbp), %rcx
	movq	%rcx, -64(%rbp)
	movq	-104(%rbp), %rcx
	movq	%rcx, -56(%rbp)
	movq	-96(%rbp), %rcx
	movq	%rcx, -48(%rbp)
	movq	-88(%rbp), %rcx
	movq	%rcx, -40(%rbp)
Ltmp438:
	.loc	38 2958 28 is_stmt 0
	movq	-64(%rbp), %rcx
	movq	%rcx, (%rax)
	movq	-56(%rbp), %rcx
	movq	%rcx, 8(%rax)
	movq	-48(%rbp), %rcx
	movq	%rcx, 16(%rax)
	movq	-40(%rbp), %rcx
	movq	%rcx, 24(%rax)
Ltmp439:
LBB63_3:
	.loc	38 0 28
	movq	-120(%rbp), %rax
	.loc	38 2960 14 epilogue_begin is_stmt 1
	addq	$128, %rsp
	popq	%rbp
	retq
Ltmp440:
Lfunc_end63:
	.cfi_endproc

	.p2align	4, 0x90
__ZN4core4iter6traits8iterator8Iterator8for_each17h4377c897adca075aE:
Lfunc_begin64:
	.loc	38 847 0
	.cfi_startproc
	.cfi_personality 155, _rust_eh_personality
	.cfi_lsda 16, Lexception11
	pushq	%rbp
	.cfi_def_cfa_offset 16
	.cfi_offset %rbp, -16
	movq	%rsp, %rbp
	.cfi_def_cfa_register %rbp
	subq	$80, %rsp
Ltmp447:
	.loc	38 857 9 prologue_end
	movq	24(%rdi), %rax
	movq	%rax, -48(%rbp)
	movq	16(%rdi), %rax
	movq	%rax, -56(%rbp)
	movq	(%rdi), %rax
	movq	8(%rdi), %rcx
	movq	%rcx, -64(%rbp)
	movq	%rax, -72(%rbp)
Ltmp448:
	.loc	38 854 13
	movq	16(%rsi), %rax
	movq	%rax, -24(%rbp)
	movq	(%rsi), %rax
	movq	8(%rsi), %rcx
	movq	%rcx, -32(%rbp)
	movq	%rax, -40(%rbp)
Ltmp441:
	leaq	-72(%rbp), %rdi
Ltmp449:
	.loc	38 0 13 is_stmt 0
	leaq	-40(%rbp), %rsi
Ltmp450:
	.loc	38 857 9 is_stmt 1
	callq	__ZN4core4iter6traits8iterator8Iterator4fold17h874d7ddf04987365E
Ltmp442:
	jmp	LBB64_3
Ltmp451:
LBB64_1:
	.loc	38 857 30 is_stmt 0
	xorl	%eax, %eax
	testb	$1, %al
	jne	LBB64_5
	jmp	LBB64_4
Ltmp452:
LBB64_2:
Ltmp443:
	.loc	38 0 30
	movq	%rax, %rcx
	movl	%edx, %eax
	movq	%rcx, -16(%rbp)
	movl	%eax, -8(%rbp)
	jmp	LBB64_1
Ltmp453:
LBB64_3:
	.loc	38 858 6 epilogue_begin is_stmt 1
	addq	$80, %rsp
	popq	%rbp
	retq
Ltmp454:
LBB64_4:
	.loc	38 847 5
	movq	-16(%rbp), %rdi
	callq	__Unwind_Resume
Ltmp455:
LBB64_5:
Ltmp444:
	.loc	38 0 5 is_stmt 0
	leaq	-72(%rbp), %rdi
	.loc	38 857 30 is_stmt 1
	callq	__ZN4core3ptr91drop_in_place$LT$alloc..vec..into_iter..IntoIter$LT$sigalign..core..PatternLocation$GT$$GT$17hf3bf22e1ab0b3a11E
Ltmp445:
	jmp	LBB64_4
Ltmp456:
LBB64_6:
Ltmp446:
	.loc	38 847 5
	callq	__ZN4core9panicking19panic_cannot_unwind17h0477e80cce5de375E
Ltmp457:
Lfunc_end64:
	.cfi_endproc
	.section	__TEXT,__gcc_except_tab
	.p2align	2, 0x0
GCC_except_table64:
Lexception11:
	.byte	255
	.byte	155
	.uleb128 Lttbase4-Lttbaseref4
Lttbaseref4:
	.byte	1
	.uleb128 Lcst_end11-Lcst_begin11
Lcst_begin11:
	.uleb128 Ltmp441-Lfunc_begin64
	.uleb128 Ltmp442-Ltmp441
	.uleb128 Ltmp443-Lfunc_begin64
	.byte	0
	.uleb128 Ltmp442-Lfunc_begin64
	.uleb128 Ltmp444-Ltmp442
	.byte	0
	.byte	0
	.uleb128 Ltmp444-Lfunc_begin64
	.uleb128 Ltmp445-Ltmp444
	.uleb128 Ltmp446-Lfunc_begin64
	.byte	1
Lcst_end11:
	.byte	127
	.byte	0
	.p2align	2, 0x0
Lttbase4:
	.byte	0
	.p2align	2, 0x0

	.section	__TEXT,__text,regular,pure_instructions
	.p2align	4, 0x90
__ZN4core4iter6traits8iterator8Iterator8for_each17h455c1860a7544067E:
Lfunc_begin65:
	.loc	38 847 0
	.cfi_startproc
	.cfi_personality 155, _rust_eh_personality
	.cfi_lsda 16, Lexception12
	pushq	%rbp
	.cfi_def_cfa_offset 16
	.cfi_offset %rbp, -16
	movq	%rsp, %rbp
	.cfi_def_cfa_register %rbp
	subq	$80, %rsp
	movq	%rsi, -24(%rbp)
Ltmp461:
	.loc	38 857 9 prologue_end
	movq	32(%rdi), %rax
	movq	%rax, -40(%rbp)
	movq	24(%rdi), %rax
	movq	%rax, -48(%rbp)
	movq	16(%rdi), %rax
	movq	%rax, -56(%rbp)
	movq	(%rdi), %rax
	movq	8(%rdi), %rcx
	movq	%rcx, -64(%rbp)
	movq	%rax, -72(%rbp)
Ltmp462:
	.loc	38 854 13
	movq	%rsi, -32(%rbp)
Ltmp463:
	.loc	38 857 9
	movq	-32(%rbp), %rsi
Ltmp458:
	leaq	-72(%rbp), %rdi
Ltmp464:
	callq	__ZN4core4iter6traits8iterator8Iterator4fold17h9b45adafcd46a851E
Ltmp459:
	jmp	LBB65_3
Ltmp465:
LBB65_1:
	.loc	38 857 30 is_stmt 0
	xorl	%eax, %eax
	testb	$1, %al
	jne	LBB65_5
	jmp	LBB65_4
Ltmp466:
LBB65_2:
Ltmp460:
	.loc	38 0 30
	movq	%rax, %rcx
	movl	%edx, %eax
	movq	%rcx, -16(%rbp)
	movl	%eax, -8(%rbp)
	jmp	LBB65_1
Ltmp467:
LBB65_3:
	.loc	38 858 6 epilogue_begin is_stmt 1
	addq	$80, %rsp
	popq	%rbp
	retq
Ltmp468:
LBB65_4:
	.loc	38 847 5
	movq	-16(%rbp), %rdi
	callq	__Unwind_Resume
Ltmp469:
LBB65_5:
	.loc	38 857 30
	jmp	LBB65_4
Ltmp470:
Lfunc_end65:
	.cfi_endproc
	.section	__TEXT,__gcc_except_tab
	.p2align	2, 0x0
GCC_except_table65:
Lexception12:
	.byte	255
	.byte	255
	.byte	1
	.uleb128 Lcst_end12-Lcst_begin12
Lcst_begin12:
	.uleb128 Ltmp458-Lfunc_begin65
	.uleb128 Ltmp459-Ltmp458
	.uleb128 Ltmp460-Lfunc_begin65
	.byte	0
	.uleb128 Ltmp459-Lfunc_begin65
	.uleb128 Lfunc_end65-Ltmp459
	.byte	0
	.byte	0
Lcst_end12:
	.p2align	2, 0x0

	.section	__TEXT,__text,regular,pure_instructions
	.p2align	4, 0x90
__ZN4core4iter6traits8iterator8Iterator8for_each17h6a6a33120ce222b8E:
Lfunc_begin66:
	.loc	38 847 0
	.cfi_startproc
	.cfi_personality 155, _rust_eh_personality
	.cfi_lsda 16, Lexception13
	pushq	%rbp
	.cfi_def_cfa_offset 16
	.cfi_offset %rbp, -16
	movq	%rsp, %rbp
	.cfi_def_cfa_register %rbp
	subq	$80, %rsp
	movq	%rdi, -32(%rbp)
	movq	%rsi, -24(%rbp)
Ltmp474:
	.loc	38 854 13 prologue_end
	movq	40(%rdx), %rax
	movq	%rax, -40(%rbp)
	movq	32(%rdx), %rax
	movq	%rax, -48(%rbp)
	movq	24(%rdx), %rax
	movq	%rax, -56(%rbp)
	movq	16(%rdx), %rax
	movq	%rax, -64(%rbp)
	movq	(%rdx), %rax
	movq	8(%rdx), %rcx
	movq	%rcx, -72(%rbp)
	movq	%rax, -80(%rbp)
Ltmp471:
	leaq	-80(%rbp), %rdx
Ltmp475:
	.loc	38 857 9
	callq	__ZN4core4iter6traits8iterator8Iterator4fold17hc272444f4dd42863E
Ltmp472:
	jmp	LBB66_3
Ltmp476:
LBB66_1:
	.loc	38 857 30 is_stmt 0
	xorl	%eax, %eax
	testb	$1, %al
	jne	LBB66_5
	jmp	LBB66_4
Ltmp477:
LBB66_2:
Ltmp473:
	.loc	38 0 30
	movq	%rax, %rcx
	movl	%edx, %eax
	movq	%rcx, -16(%rbp)
	movl	%eax, -8(%rbp)
	jmp	LBB66_1
Ltmp478:
LBB66_3:
	.loc	38 858 6 epilogue_begin is_stmt 1
	addq	$80, %rsp
	popq	%rbp
	retq
Ltmp479:
LBB66_4:
	.loc	38 847 5
	movq	-16(%rbp), %rdi
	callq	__Unwind_Resume
Ltmp480:
LBB66_5:
	.loc	38 857 30
	jmp	LBB66_4
Ltmp481:
Lfunc_end66:
	.cfi_endproc
	.section	__TEXT,__gcc_except_tab
	.p2align	2, 0x0
GCC_except_table66:
Lexception13:
	.byte	255
	.byte	255
	.byte	1
	.uleb128 Lcst_end13-Lcst_begin13
Lcst_begin13:
	.uleb128 Ltmp471-Lfunc_begin66
	.uleb128 Ltmp472-Ltmp471
	.uleb128 Ltmp473-Lfunc_begin66
	.byte	0
	.uleb128 Ltmp472-Lfunc_begin66
	.uleb128 Lfunc_end66-Ltmp472
	.byte	0
	.byte	0
Lcst_end13:
	.p2align	2, 0x0

	.section	__TEXT,__text,regular,pure_instructions
	.p2align	4, 0x90
__ZN4core4iter6traits8iterator8Iterator8for_each4call28_$u7b$$u7b$closure$u7d$$u7d$17h71eeac26a817bc6dE:
Lfunc_begin67:
	.loc	38 854 0
	.cfi_startproc
	pushq	%rbp
	.cfi_def_cfa_offset 16
	.cfi_offset %rbp, -16
	movq	%rsp, %rbp
	.cfi_def_cfa_register %rbp
	subq	$48, %rsp
	movq	%rdi, -32(%rbp)
	movq	%rsi, -16(%rbp)
	movq	%rdx, -8(%rbp)
Ltmp482:
	.loc	38 854 29 prologue_end
	movq	%rsi, -48(%rbp)
	movq	%rdx, -40(%rbp)
	movq	-48(%rbp), %rsi
	movq	-40(%rbp), %rdx
	callq	__ZN8sigalign9algorithm6anchor11AnchorTable19new_by_target_index28_$u7b$$u7b$closure$u7d$$u7d$17h5f51dbb47467fc05E
	.loc	38 854 36 epilogue_begin is_stmt 0
	addq	$48, %rsp
	popq	%rbp
	retq
Ltmp483:
Lfunc_end67:
	.cfi_endproc

	.p2align	4, 0x90
__ZN4core4iter6traits8iterator8Iterator8for_each4call28_$u7b$$u7b$closure$u7d$$u7d$17hf33ffa9c6ddf18adE:
Lfunc_begin68:
	.loc	38 854 0 is_stmt 1
	.cfi_startproc
	pushq	%rbp
	.cfi_def_cfa_offset 16
	.cfi_offset %rbp, -16
	movq	%rsp, %rbp
	.cfi_def_cfa_register %rbp
	subq	$48, %rsp
	movq	%rdi, -16(%rbp)
Ltmp484:
	.loc	38 854 29 prologue_end
	movq	(%rsi), %rax
	movq	%rax, -48(%rbp)
	movq	8(%rsi), %rax
	movq	%rax, -40(%rbp)
	movq	16(%rsi), %rax
	movq	%rax, -32(%rbp)
	movq	24(%rsi), %rax
	movq	%rax, -24(%rbp)
	leaq	-48(%rbp), %rsi
Ltmp485:
	callq	__ZN8sigalign9algorithm6anchor11AnchorTable19new_by_target_index28_$u7b$$u7b$closure$u7d$$u7d$28_$u7b$$u7b$closure$u7d$$u7d$17hf5166916bdf428feE
	.loc	38 854 36 epilogue_begin is_stmt 0
	addq	$48, %rsp
	popq	%rbp
	retq
Ltmp486:
Lfunc_end68:
	.cfi_endproc

	.p2align	4, 0x90
__ZN4core4iter6traits8iterator8Iterator8for_each4call28_$u7b$$u7b$closure$u7d$$u7d$17hfed69ee241698927E:
Lfunc_begin69:
	.loc	38 854 0 is_stmt 1
	.cfi_startproc
	pushq	%rbp
	.cfi_def_cfa_offset 16
	.cfi_offset %rbp, -16
	movq	%rsp, %rbp
	.cfi_def_cfa_register %rbp
	subq	$32, %rsp
	movq	%rdi, -24(%rbp)
	movq	%rsi, -8(%rbp)
Ltmp487:
	.loc	38 854 29 prologue_end
	movq	%rsi, -32(%rbp)
	movq	-32(%rbp), %rsi
	callq	__ZN8sigalign9algorithm6anchor11AnchorTable19new_by_target_index28_$u7b$$u7b$closure$u7d$$u7d$17hd41a9a737f42ef0fE
	.loc	38 854 36 epilogue_begin is_stmt 0
	addq	$32, %rsp
	popq	%rbp
	retq
Ltmp488:
Lfunc_end69:
	.cfi_endproc

	.p2align	4, 0x90
__ZN4core4iter6traits8iterator8Iterator8try_fold17h96bbc80ac177145cE:
Lfunc_begin70:
	.loc	38 2453 0 is_stmt 1
	.cfi_startproc
	.cfi_personality 155, _rust_eh_personality
	.cfi_lsda 16, Lexception14
	pushq	%rbp
	.cfi_def_cfa_offset 16
	.cfi_offset %rbp, -16
	movq	%rsp, %rbp
	.cfi_def_cfa_register %rbp
	subq	$240, %rsp
	movq	%rsi, -216(%rbp)
	movq	%rdi, -208(%rbp)
	movq	%rdi, -200(%rbp)
	movq	%rdx, -192(%rbp)
	movq	%rsi, -48(%rbp)
Ltmp500:
	.loc	38 2459 25 prologue_end
	movb	$1, -49(%rbp)
LBB70_1:
Ltmp489:
	.loc	38 0 25 is_stmt 0
	movq	-216(%rbp), %rdi
Ltmp501:
	.loc	38 2460 29 is_stmt 1
	callq	__ZN108_$LT$std..collections..hash..map..IterMut$LT$K$C$V$GT$$u20$as$u20$core..iter..traits..iterator..Iterator$GT$4next17hed696404cdd154dcE
Ltmp490:
	movq	%rdx, -232(%rbp)
	movq	%rax, -224(%rbp)
	jmp	LBB70_4
Ltmp502:
LBB70_2:
	.loc	38 2464 5
	testb	$1, -49(%rbp)
	jne	LBB70_16
	jmp	LBB70_15
LBB70_3:
Ltmp499:
	.loc	38 0 5 is_stmt 0
	movq	%rax, %rcx
	movl	%edx, %eax
	movq	%rcx, -32(%rbp)
	movl	%eax, -24(%rbp)
	jmp	LBB70_2
LBB70_4:
	movq	-232(%rbp), %rax
	movq	-224(%rbp), %rcx
Ltmp503:
	.loc	38 2460 29 is_stmt 1
	movq	%rcx, -184(%rbp)
	movq	%rax, -176(%rbp)
	.loc	38 2460 19 is_stmt 0
	movq	-184(%rbp), %rdx
	movl	$1, %eax
	xorl	%ecx, %ecx
	cmpq	$0, %rdx
	cmoveq	%rcx, %rax
	cmpq	$1, %rax
	jne	LBB70_6
	.loc	38 2460 24
	movq	-184(%rbp), %rcx
	movq	-176(%rbp), %rax
	movq	%rcx, -16(%rbp)
	movq	%rax, -8(%rbp)
	.loc	38 2461 23 is_stmt 1
	movb	$0, -49(%rbp)
	.loc	38 2461 21 is_stmt 0
	movq	%rcx, -104(%rbp)
	movq	%rax, -96(%rbp)
	movq	-104(%rbp), %rdx
	movq	-96(%rbp), %rcx
Ltmp493:
	leaq	-136(%rbp), %rdi
	leaq	-192(%rbp), %rsi
	callq	__ZN4core4iter6traits8iterator8Iterator8find_map5check28_$u7b$$u7b$closure$u7d$$u7d$17h3f3122431c3db216E
Ltmp494:
	jmp	LBB70_7
Ltmp504:
LBB70_6:
	.loc	38 2460 9 is_stmt 1
	jmp	LBB70_13
LBB70_7:
Ltmp495:
	.loc	38 0 9 is_stmt 0
	leaq	-168(%rbp), %rdi
	leaq	-136(%rbp), %rsi
Ltmp505:
	.loc	38 2461 21 is_stmt 1
	callq	__ZN95_$LT$core..ops..control_flow..ControlFlow$LT$B$C$C$GT$$u20$as$u20$core..ops..try_trait..Try$GT$6branch17h5c251d0aa37db8f2E
Ltmp496:
	jmp	LBB70_8
LBB70_8:
	movq	-168(%rbp), %rdx
	movl	$1, %eax
	xorl	%ecx, %ecx
	cmpq	$0, %rdx
	cmoveq	%rcx, %rax
	cmpq	$0, %rax
	jne	LBB70_10
	.loc	38 2461 13 is_stmt 0
	movb	$1, -49(%rbp)
Ltmp506:
	.loc	38 2460 9 is_stmt 1
	jmp	LBB70_1
LBB70_10:
	.loc	38 0 9 is_stmt 0
	movq	-208(%rbp), %rdi
Ltmp507:
	.loc	38 2461 32 is_stmt 1
	movq	-144(%rbp), %rax
	movq	%rax, -64(%rbp)
	movq	-152(%rbp), %rax
	movq	%rax, -72(%rbp)
	movq	-168(%rbp), %rax
	movq	-160(%rbp), %rcx
	movq	%rcx, -80(%rbp)
	movq	%rax, -88(%rbp)
Ltmp497:
	leaq	-88(%rbp), %rsi
Ltmp508:
	.loc	38 2461 21 is_stmt 0
	callq	__ZN104_$LT$core..ops..control_flow..ControlFlow$LT$B$C$C$GT$$u20$as$u20$core..ops..try_trait..FromResidual$GT$13from_residual17h625fc4ccefe55eafE
Ltmp498:
	jmp	LBB70_11
Ltmp509:
LBB70_11:
	.loc	38 2464 5 is_stmt 1
	jmp	LBB70_12
LBB70_12:
	.loc	38 0 5 is_stmt 0
	movq	-200(%rbp), %rax
	.loc	38 2464 6 epilogue_begin
	addq	$240, %rsp
	popq	%rbp
	retq
LBB70_13:
	.loc	38 0 6
	movq	-208(%rbp), %rdi
Ltmp510:
	.loc	38 2463 15 is_stmt 1
	movb	$0, -49(%rbp)
Ltmp491:
	callq	__ZN95_$LT$core..ops..control_flow..ControlFlow$LT$B$C$C$GT$$u20$as$u20$core..ops..try_trait..Try$GT$11from_output17h13c912d0af64c56cE
Ltmp492:
	jmp	LBB70_14
Ltmp511:
LBB70_14:
	.loc	38 2464 5
	jmp	LBB70_12
LBB70_15:
	.loc	38 2453 5
	movq	-32(%rbp), %rdi
	callq	__Unwind_Resume
LBB70_16:
	.loc	38 2464 5
	jmp	LBB70_15
Ltmp512:
Lfunc_end70:
	.cfi_endproc
	.section	__TEXT,__gcc_except_tab
	.p2align	2, 0x0
GCC_except_table70:
Lexception14:
	.byte	255
	.byte	255
	.byte	1
	.uleb128 Lcst_end14-Lcst_begin14
Lcst_begin14:
	.uleb128 Ltmp489-Lfunc_begin70
	.uleb128 Ltmp492-Ltmp489
	.uleb128 Ltmp499-Lfunc_begin70
	.byte	0
	.uleb128 Ltmp492-Lfunc_begin70
	.uleb128 Lfunc_end70-Ltmp492
	.byte	0
	.byte	0
Lcst_end14:
	.p2align	2, 0x0

	.section	__TEXT,__text,regular,pure_instructions
	.p2align	4, 0x90
__ZN4core4iter6traits8iterator8Iterator8try_fold17hdf754441f30ef12aE:
Lfunc_begin71:
	.loc	38 2453 0
	.cfi_startproc
	.cfi_personality 155, _rust_eh_personality
	.cfi_lsda 16, Lexception15
	pushq	%rbp
	.cfi_def_cfa_offset 16
	.cfi_offset %rbp, -16
	movq	%rsp, %rbp
	.cfi_def_cfa_register %rbp
	subq	$240, %rsp
	movq	%rsi, -216(%rbp)
	movq	%rdi, -208(%rbp)
	movq	%rdi, -200(%rbp)
	movq	%rdx, -192(%rbp)
	movq	%rsi, -48(%rbp)
Ltmp524:
	.loc	38 2459 25 prologue_end
	movb	$1, -49(%rbp)
LBB71_1:
Ltmp513:
	.loc	38 0 25 is_stmt 0
	movq	-216(%rbp), %rdi
Ltmp525:
	.loc	38 2460 29 is_stmt 1
	callq	__ZN108_$LT$std..collections..hash..map..IterMut$LT$K$C$V$GT$$u20$as$u20$core..iter..traits..iterator..Iterator$GT$4next17hed696404cdd154dcE
Ltmp514:
	movq	%rdx, -232(%rbp)
	movq	%rax, -224(%rbp)
	jmp	LBB71_4
Ltmp526:
LBB71_2:
	.loc	38 2464 5
	testb	$1, -49(%rbp)
	jne	LBB71_16
	jmp	LBB71_15
LBB71_3:
Ltmp523:
	.loc	38 0 5 is_stmt 0
	movq	%rax, %rcx
	movl	%edx, %eax
	movq	%rcx, -32(%rbp)
	movl	%eax, -24(%rbp)
	jmp	LBB71_2
LBB71_4:
	movq	-232(%rbp), %rax
	movq	-224(%rbp), %rcx
Ltmp527:
	.loc	38 2460 29 is_stmt 1
	movq	%rcx, -184(%rbp)
	movq	%rax, -176(%rbp)
	.loc	38 2460 19 is_stmt 0
	movq	-184(%rbp), %rdx
	movl	$1, %eax
	xorl	%ecx, %ecx
	cmpq	$0, %rdx
	cmoveq	%rcx, %rax
	cmpq	$1, %rax
	jne	LBB71_6
	.loc	38 2460 24
	movq	-184(%rbp), %rcx
	movq	-176(%rbp), %rax
	movq	%rcx, -16(%rbp)
	movq	%rax, -8(%rbp)
	.loc	38 2461 23 is_stmt 1
	movb	$0, -49(%rbp)
	.loc	38 2461 21 is_stmt 0
	movq	%rcx, -104(%rbp)
	movq	%rax, -96(%rbp)
	movq	-104(%rbp), %rdx
	movq	-96(%rbp), %rcx
Ltmp517:
	leaq	-136(%rbp), %rdi
	leaq	-192(%rbp), %rsi
	callq	__ZN4core4iter6traits8iterator8Iterator8find_map5check28_$u7b$$u7b$closure$u7d$$u7d$17h7a0bb70b62a4b61dE
Ltmp518:
	jmp	LBB71_7
Ltmp528:
LBB71_6:
	.loc	38 2460 9 is_stmt 1
	jmp	LBB71_13
LBB71_7:
Ltmp519:
	.loc	38 0 9 is_stmt 0
	leaq	-168(%rbp), %rdi
	leaq	-136(%rbp), %rsi
Ltmp529:
	.loc	38 2461 21 is_stmt 1
	callq	__ZN95_$LT$core..ops..control_flow..ControlFlow$LT$B$C$C$GT$$u20$as$u20$core..ops..try_trait..Try$GT$6branch17h5c251d0aa37db8f2E
Ltmp520:
	jmp	LBB71_8
LBB71_8:
	movq	-168(%rbp), %rdx
	movl	$1, %eax
	xorl	%ecx, %ecx
	cmpq	$0, %rdx
	cmoveq	%rcx, %rax
	cmpq	$0, %rax
	jne	LBB71_10
	.loc	38 2461 13 is_stmt 0
	movb	$1, -49(%rbp)
Ltmp530:
	.loc	38 2460 9 is_stmt 1
	jmp	LBB71_1
LBB71_10:
	.loc	38 0 9 is_stmt 0
	movq	-208(%rbp), %rdi
Ltmp531:
	.loc	38 2461 32 is_stmt 1
	movq	-144(%rbp), %rax
	movq	%rax, -64(%rbp)
	movq	-152(%rbp), %rax
	movq	%rax, -72(%rbp)
	movq	-168(%rbp), %rax
	movq	-160(%rbp), %rcx
	movq	%rcx, -80(%rbp)
	movq	%rax, -88(%rbp)
Ltmp521:
	leaq	-88(%rbp), %rsi
Ltmp532:
	.loc	38 2461 21 is_stmt 0
	callq	__ZN104_$LT$core..ops..control_flow..ControlFlow$LT$B$C$C$GT$$u20$as$u20$core..ops..try_trait..FromResidual$GT$13from_residual17h625fc4ccefe55eafE
Ltmp522:
	jmp	LBB71_11
Ltmp533:
LBB71_11:
	.loc	38 2464 5 is_stmt 1
	jmp	LBB71_12
LBB71_12:
	.loc	38 0 5 is_stmt 0
	movq	-200(%rbp), %rax
	.loc	38 2464 6 epilogue_begin
	addq	$240, %rsp
	popq	%rbp
	retq
LBB71_13:
	.loc	38 0 6
	movq	-208(%rbp), %rdi
Ltmp534:
	.loc	38 2463 15 is_stmt 1
	movb	$0, -49(%rbp)
Ltmp515:
	callq	__ZN95_$LT$core..ops..control_flow..ControlFlow$LT$B$C$C$GT$$u20$as$u20$core..ops..try_trait..Try$GT$11from_output17h13c912d0af64c56cE
Ltmp516:
	jmp	LBB71_14
Ltmp535:
LBB71_14:
	.loc	38 2464 5
	jmp	LBB71_12
LBB71_15:
	.loc	38 2453 5
	movq	-32(%rbp), %rdi
	callq	__Unwind_Resume
LBB71_16:
	.loc	38 2464 5
	jmp	LBB71_15
Ltmp536:
Lfunc_end71:
	.cfi_endproc
	.section	__TEXT,__gcc_except_tab
	.p2align	2, 0x0
GCC_except_table71:
Lexception15:
	.byte	255
	.byte	255
	.byte	1
	.uleb128 Lcst_end15-Lcst_begin15
Lcst_begin15:
	.uleb128 Ltmp513-Lfunc_begin71
	.uleb128 Ltmp516-Ltmp513
	.uleb128 Ltmp523-Lfunc_begin71
	.byte	0
	.uleb128 Ltmp516-Lfunc_begin71
	.uleb128 Lfunc_end71-Ltmp516
	.byte	0
	.byte	0
Lcst_end15:
	.p2align	2, 0x0

	.section	__TEXT,__text,regular,pure_instructions
	.p2align	4, 0x90
__ZN4core6result19Result$LT$T$C$E$GT$6unwrap17h0d5bc087de03c7c0E:
Lfunc_begin72:
	.file	39 "/rustc/cc66ad468955717ab92600c770da8c1601a4ff33/library/core/src" "result.rs"
	.loc	39 1071 0
	.cfi_startproc
	.cfi_personality 155, _rust_eh_personality
	.cfi_lsda 16, Lexception16
	pushq	%rbp
	.cfi_def_cfa_offset 16
	.cfi_offset %rbp, -16
	movq	%rsp, %rbp
	.cfi_def_cfa_register %rbp
	subq	$80, %rsp
	movq	%rdx, -80(%rbp)
	movq	%rsi, -72(%rbp)
Ltmp543:
	movq	%rdi, -64(%rbp)
Ltmp544:
	movq	%rdi, -56(%rbp)
Ltmp545:
	.loc	39 1075 15 prologue_end
	xorl	%eax, %eax
	movl	$1, %ecx
	cmpq	$4, (%rsi)
	cmoveq	%rcx, %rax
	.loc	39 1075 9 is_stmt 0
	cmpq	$0, %rax
Ltmp546:
	jne	LBB72_2
Ltmp547:
	.loc	39 0 9
	movq	-72(%rbp), %rsi
	movq	-64(%rbp), %rdi
	.loc	39 1076 16 is_stmt 1
	movl	$592, %edx
	callq	_memcpy
	movq	-56(%rbp), %rax
	.loc	39 1079 6 epilogue_begin
	addq	$80, %rsp
	popq	%rbp
	retq
Ltmp548:
LBB72_2:
	.loc	39 0 6 is_stmt 0
	movq	-80(%rbp), %r8
	movq	-72(%rbp), %rcx
	.loc	39 1077 17 is_stmt 1
	movq	32(%rcx), %rax
	movq	%rax, -24(%rbp)
	movq	24(%rcx), %rax
	movq	%rax, -32(%rbp)
	movq	8(%rcx), %rax
	movq	16(%rcx), %rcx
	movq	%rcx, -40(%rbp)
	movq	%rax, -48(%rbp)
Ltmp537:
Ltmp549:
	.loc	39 1077 23 is_stmt 0
	leaq	l___unnamed_11(%rip), %rdi
	leaq	l___unnamed_2(%rip), %rcx
	movl	$43, %esi
	leaq	-48(%rbp), %rdx
	callq	__ZN4core6result13unwrap_failed17h789415aec617156bE
Ltmp538:
	jmp	LBB72_5
Ltmp550:
LBB72_3:
Ltmp540:
	.loc	39 0 23
	leaq	-48(%rbp), %rdi
	.loc	39 1077 86
	callq	__ZN4core3ptr61drop_in_place$LT$sigalign..reference..ReferenceBuildError$GT$17he3ca6af3ad5f1362E
Ltmp541:
	jmp	LBB72_7
Ltmp551:
LBB72_4:
Ltmp539:
	.loc	39 0 86
	movq	%rax, %rcx
	movl	%edx, %eax
	movq	%rcx, -16(%rbp)
	movl	%eax, -8(%rbp)
	jmp	LBB72_3
Ltmp552:
LBB72_5:
	ud2
Ltmp553:
LBB72_6:
Ltmp542:
	.loc	39 1071 5 is_stmt 1
	callq	__ZN4core9panicking19panic_cannot_unwind17h0477e80cce5de375E
Ltmp554:
LBB72_7:
	movq	-16(%rbp), %rdi
	callq	__Unwind_Resume
Ltmp555:
Lfunc_end72:
	.cfi_endproc
	.section	__TEXT,__gcc_except_tab
	.p2align	2, 0x0
GCC_except_table72:
Lexception16:
	.byte	255
	.byte	155
	.uleb128 Lttbase5-Lttbaseref5
Lttbaseref5:
	.byte	1
	.uleb128 Lcst_end16-Lcst_begin16
Lcst_begin16:
	.uleb128 Lfunc_begin72-Lfunc_begin72
	.uleb128 Ltmp537-Lfunc_begin72
	.byte	0
	.byte	0
	.uleb128 Ltmp537-Lfunc_begin72
	.uleb128 Ltmp538-Ltmp537
	.uleb128 Ltmp539-Lfunc_begin72
	.byte	0
	.uleb128 Ltmp540-Lfunc_begin72
	.uleb128 Ltmp541-Ltmp540
	.uleb128 Ltmp542-Lfunc_begin72
	.byte	1
	.uleb128 Ltmp541-Lfunc_begin72
	.uleb128 Lfunc_end72-Ltmp541
	.byte	0
	.byte	0
Lcst_end16:
	.byte	127
	.byte	0
	.p2align	2, 0x0
Lttbase5:
	.byte	0
	.p2align	2, 0x0

	.section	__TEXT,__text,regular,pure_instructions
	.p2align	4, 0x90
__ZN4core6result19Result$LT$T$C$E$GT$6unwrap17h61b662dccfe46f7bE:
Lfunc_begin73:
	.loc	39 1071 0
	.cfi_startproc
	.cfi_personality 155, _rust_eh_personality
	.cfi_lsda 16, Lexception17
	pushq	%rbp
	.cfi_def_cfa_offset 16
	.cfi_offset %rbp, -16
	movq	%rsp, %rbp
	.cfi_def_cfa_register %rbp
	subq	$64, %rsp
	movq	%rdx, -56(%rbp)
	movq	%rsi, -48(%rbp)
Ltmp559:
	movq	%rdi, -40(%rbp)
Ltmp560:
	movq	%rdi, -32(%rbp)
Ltmp561:
	.loc	39 1075 15 prologue_end
	xorl	%eax, %eax
	movl	$1, %ecx
	cmpl	$3, (%rsi)
	cmoveq	%rcx, %rax
	.loc	39 1075 9 is_stmt 0
	cmpq	$0, %rax
Ltmp562:
	jne	LBB73_2
Ltmp563:
	.loc	39 0 9
	movq	-48(%rbp), %rsi
	movq	-40(%rbp), %rdi
	.loc	39 1076 16 is_stmt 1
	movl	$320, %edx
	callq	_memcpy
	movq	-32(%rbp), %rax
	.loc	39 1079 6 epilogue_begin
	addq	$64, %rsp
	popq	%rbp
	retq
Ltmp564:
LBB73_2:
	.loc	39 0 6 is_stmt 0
	movq	-56(%rbp), %r8
	movq	-48(%rbp), %rax
	.loc	39 1077 17 is_stmt 1
	movb	4(%rax), %al
	movb	%al, -17(%rbp)
Ltmp556:
Ltmp565:
	.loc	39 1077 23 is_stmt 0
	leaq	l___unnamed_11(%rip), %rdi
	leaq	l___unnamed_3(%rip), %rcx
	movl	$43, %esi
	leaq	-17(%rbp), %rdx
	callq	__ZN4core6result13unwrap_failed17h789415aec617156bE
Ltmp557:
	jmp	LBB73_5
Ltmp566:
LBB73_3:
	.loc	39 1071 5 is_stmt 1
	movq	-16(%rbp), %rdi
	callq	__Unwind_Resume
Ltmp567:
LBB73_4:
Ltmp558:
	.loc	39 0 5 is_stmt 0
	movq	%rax, %rcx
	movl	%edx, %eax
	movq	%rcx, -16(%rbp)
	movl	%eax, -8(%rbp)
	jmp	LBB73_3
Ltmp568:
LBB73_5:
	ud2
Lfunc_end73:
	.cfi_endproc
	.section	__TEXT,__gcc_except_tab
	.p2align	2, 0x0
GCC_except_table73:
Lexception17:
	.byte	255
	.byte	255
	.byte	1
	.uleb128 Lcst_end17-Lcst_begin17
Lcst_begin17:
	.uleb128 Lfunc_begin73-Lfunc_begin73
	.uleb128 Ltmp556-Lfunc_begin73
	.byte	0
	.byte	0
	.uleb128 Ltmp556-Lfunc_begin73
	.uleb128 Ltmp557-Ltmp556
	.uleb128 Ltmp558-Lfunc_begin73
	.byte	0
	.uleb128 Ltmp557-Lfunc_begin73
	.uleb128 Lfunc_end73-Ltmp557
	.byte	0
	.byte	0
Lcst_end17:
	.p2align	2, 0x0

	.section	__TEXT,__text,regular,pure_instructions
	.p2align	4, 0x90
__ZN4core9core_arch3x864sse213_mm_set1_epi817h8d1534aeefb142a8E:
Lfunc_begin74:
	.file	40 "/rustc/cc66ad468955717ab92600c770da8c1601a4ff33/library/core/src/../../stdarch/crates/core_arch/src/x86" "sse2.rs"
	.loc	40 1081 0 is_stmt 1
	.cfi_startproc
	pushq	%rbp
	.cfi_def_cfa_offset 16
	.cfi_offset %rbp, -16
	movq	%rsp, %rbp
	.cfi_def_cfa_register %rbp
	movb	%sil, %cl
	movq	%rdi, %rax
	movb	%cl, -1(%rbp)
Ltmp569:
	.file	41 "/rustc/cc66ad468955717ab92600c770da8c1601a4ff33/library/core/src/../../stdarch/crates/core_arch/src" "simd.rs"
	.loc	41 193 1 prologue_end
	movb	%cl, -32(%rbp)
	movb	%cl, -31(%rbp)
	movb	%cl, -30(%rbp)
	movb	%cl, -29(%rbp)
	movb	%cl, -28(%rbp)
	movb	%cl, -27(%rbp)
	movb	%cl, -26(%rbp)
	movb	%cl, -25(%rbp)
	movb	%cl, -24(%rbp)
	movb	%cl, -23(%rbp)
	movb	%cl, -22(%rbp)
	movb	%cl, -21(%rbp)
	movb	%cl, -20(%rbp)
	movb	%cl, -19(%rbp)
	movb	%cl, -18(%rbp)
	movb	%cl, -17(%rbp)
Ltmp570:
	.loc	40 1036 5
	movdqa	-32(%rbp), %xmm0
	movdqa	%xmm0, (%rdi)
Ltmp571:
	.loc	40 1083 2 epilogue_begin
	popq	%rbp
	retq
Ltmp572:
Lfunc_end74:
	.cfi_endproc

	.p2align	4, 0x90
__ZN4core9core_arch3x864sse214_mm_cmpeq_epi817h94cad5626e2172edE:
Lfunc_begin75:
	.loc	40 805 0
	.cfi_startproc
	pushq	%rbp
	.cfi_def_cfa_offset 16
	.cfi_offset %rbp, -16
	movq	%rsp, %rbp
	.cfi_def_cfa_register %rbp
	movq	%rdi, %rax
Ltmp573:
	.file	42 "/rustc/cc66ad468955717ab92600c770da8c1601a4ff33/library/core/src/../../stdarch/crates/core_arch/src/x86" "mod.rs"
	.loc	42 399 18 prologue_end
	movaps	(%rsi), %xmm0
	movaps	%xmm0, -48(%rbp)
Ltmp574:
	.loc	42 399 18 is_stmt 0
	movaps	(%rdx), %xmm0
	movaps	%xmm0, -32(%rbp)
Ltmp575:
	.loc	40 806 27 is_stmt 1
	movaps	-48(%rbp), %xmm0
	movaps	-32(%rbp), %xmm1
	pcmpeqb	%xmm1, %xmm0
	movdqa	%xmm0, -16(%rbp)
	movdqa	-16(%rbp), %xmm0
	.loc	40 806 5 is_stmt 0
	movdqa	%xmm0, (%rdi)
	.loc	40 807 2 epilogue_begin is_stmt 1
	popq	%rbp
	retq
Ltmp576:
Lfunc_end75:
	.cfi_endproc

	.p2align	4, 0x90
__ZN4core9core_arch3x864sse214_mm_load_si12817hd6016d24589514feE:
Lfunc_begin76:
	.loc	40 1187 0
	.cfi_startproc
	pushq	%rbp
	.cfi_def_cfa_offset 16
	.cfi_offset %rbp, -16
	movq	%rsp, %rbp
	.cfi_def_cfa_register %rbp
	movq	%rdi, %rax
	movq	%rsi, -8(%rbp)
Ltmp577:
	.loc	40 1188 5 prologue_end
	movdqa	(%rsi), %xmm0
	movdqa	%xmm0, (%rdi)
	.loc	40 1189 2 epilogue_begin
	popq	%rbp
	retq
Ltmp578:
Lfunc_end76:
	.cfi_endproc

	.p2align	4, 0x90
__ZN4core9core_arch3x864sse215_mm_loadu_si12817h4c3e97a794be9543E:
Lfunc_begin77:
	.loc	40 1200 0
	.cfi_startproc
	pushq	%rbp
	.cfi_def_cfa_offset 16
	.cfi_offset %rbp, -16
	movq	%rsp, %rbp
	.cfi_def_cfa_register %rbp
	movq	%rdi, %rax
Ltmp579:
	.loc	6 2667 72 prologue_end
	movq	$16, -56(%rbp)
	movq	%rsi, -24(%rbp)
Ltmp580:
	.loc	40 2761 5
	movq	$0, -48(%rbp)
	movq	$0, -40(%rbp)
Ltmp581:
	.loc	40 1203 9
	movq	%rsi, -16(%rbp)
	.loc	40 1204 9
	leaq	-48(%rbp), %rcx
	movq	%rcx, -8(%rbp)
Ltmp582:
	.loc	6 2685 9
	movq	(%rsi), %rcx
	movq	%rcx, -48(%rbp)
	movq	8(%rsi), %rcx
	movq	%rcx, -40(%rbp)
Ltmp583:
	.loc	40 1207 5
	movdqa	-48(%rbp), %xmm0
	movdqa	%xmm0, (%rdi)
Ltmp584:
	.loc	40 1208 2 epilogue_begin
	popq	%rbp
	retq
Ltmp585:
Lfunc_end77:
	.cfi_endproc

	.p2align	4, 0x90
__ZN4core9core_arch3x864sse217_mm_movemask_epi817h8809dedc070bc214E:
Lfunc_begin78:
	.loc	40 1386 0
	.cfi_startproc
	pushq	%rbp
	.cfi_def_cfa_offset 16
	.cfi_offset %rbp, -16
	movq	%rsp, %rbp
	.cfi_def_cfa_register %rbp
Ltmp586:
	.loc	41 193 1 prologue_end
	movb	$0, -81(%rbp)
	movb	$0, -80(%rbp)
	movb	$0, -79(%rbp)
	movb	$0, -78(%rbp)
	movb	$0, -77(%rbp)
	movb	$0, -76(%rbp)
	movb	$0, -75(%rbp)
	movb	$0, -74(%rbp)
	movb	$0, -73(%rbp)
	movb	$0, -72(%rbp)
	movb	$0, -71(%rbp)
	movb	$0, -70(%rbp)
	movb	$0, -69(%rbp)
	movb	$0, -68(%rbp)
	movb	$0, -67(%rbp)
	movb	$0, -66(%rbp)
	movb	$0, -65(%rbp)
Ltmp587:
	.loc	42 399 18
	movaps	(%rdi), %xmm0
	movaps	%xmm0, -64(%rbp)
Ltmp588:
	.loc	40 1388 20
	movaps	-64(%rbp), %xmm1
	movaps	-80(%rbp), %xmm0
	pcmpgtb	%xmm1, %xmm0
	movaps	%xmm0, -48(%rbp)
	movaps	-48(%rbp), %xmm0
	movaps	%xmm0, -32(%rbp)
Ltmp589:
	.loc	40 1389 5
	pmovmskb	%xmm0, %eax
	movw	%ax, -2(%rbp)
	movzwl	-2(%rbp), %eax
Ltmp590:
	.loc	40 1390 2 epilogue_begin
	popq	%rbp
	retq
Ltmp591:
Lfunc_end78:
	.cfi_endproc

	.p2align	4, 0x90
__ZN54_$LT$$LP$$RP$$u20$as$u20$std..process..Termination$GT$6report17h5b6ac2943b6f999eE:
Lfunc_begin79:
	.loc	31 2263 0
	.cfi_startproc
	pushq	%rbp
	.cfi_def_cfa_offset 16
	.cfi_offset %rbp, -16
	movq	%rsp, %rbp
	.cfi_def_cfa_register %rbp
Ltmp592:
	.loc	31 2265 6 prologue_end
	xorl	%eax, %eax
	.loc	31 2265 6 epilogue_begin is_stmt 0
	popq	%rbp
	retq
Ltmp593:
Lfunc_end79:
	.cfi_endproc

	.p2align	4, 0x90
__ZN5ahash12random_state11RandomState3new17h13f44490167ce283E:
Lfunc_begin80:
	.file	43 "/Users/khun/.cargo/registry/src/index.crates.io-6f17d22bba15001f/ahash-0.8.6/src" "random_state.rs"
	.loc	43 239 0 is_stmt 1
	.cfi_startproc
	pushq	%rbp
	.cfi_def_cfa_offset 16
	.cfi_offset %rbp, -16
	movq	%rsp, %rbp
	.cfi_def_cfa_register %rbp
	subq	$80, %rsp
	movq	%rdi, -56(%rbp)
	movq	%rdi, -32(%rbp)
Ltmp594:
	.loc	43 240 19 prologue_end
	callq	__ZN5ahash12random_state7get_src17h57a9212baf356939E
	movq	%rax, -72(%rbp)
	movq	%rdx, -64(%rbp)
	movq	%rax, -24(%rbp)
	movq	%rdx, -16(%rbp)
Ltmp595:
	.loc	43 241 21
	callq	__ZN5ahash12random_state15get_fixed_seeds17hf22309d87e070872E
	movq	-72(%rbp), %rdi
	movq	-64(%rbp), %rdx
	movq	%rax, -48(%rbp)
	movq	%rax, -8(%rbp)
Ltmp596:
	.loc	43 242 36
	addq	$32, %rax
	movq	%rax, -40(%rbp)
	.loc	43 242 47 is_stmt 0
	callq	*24(%rdx)
	movq	-56(%rbp), %rdi
	movq	-48(%rbp), %rsi
	movq	-40(%rbp), %rdx
	movq	%rax, %rcx
	.loc	43 242 9
	callq	__ZN5ahash12random_state11RandomState9from_keys17hba63871f46997d56E
	movq	-32(%rbp), %rax
Ltmp597:
	.loc	43 243 6 epilogue_begin is_stmt 1
	addq	$80, %rsp
	popq	%rbp
	retq
Ltmp598:
Lfunc_end80:
	.cfi_endproc

	.p2align	4, 0x90
__ZN5ahash12random_state15get_fixed_seeds17hf22309d87e070872E:
Lfunc_begin81:
	.loc	43 74 0
	.cfi_startproc
	pushq	%rbp
	.cfi_def_cfa_offset 16
	.cfi_offset %rbp, -16
	movq	%rsp, %rbp
	.cfi_def_cfa_register %rbp
Ltmp599:
	.loc	43 79 13 prologue_end
	movq	__ZN5ahash12random_state15get_fixed_seeds5SEEDS17hc12b9d9dd2084493E@GOTPCREL(%rip), %rdi
	callq	__ZN9once_cell4race8once_box16OnceBox$LT$T$GT$11get_or_init17h47dc576cc012eda7E
	.loc	43 84 10 epilogue_begin
	popq	%rbp
	retq
Ltmp600:
Lfunc_end81:
	.cfi_endproc

	.p2align	4, 0x90
__ZN5ahash12random_state7get_src17h57a9212baf356939E:
Lfunc_begin82:
	.loc	43 195 0
	.cfi_startproc
	pushq	%rbp
	.cfi_def_cfa_offset 16
	.cfi_offset %rbp, -16
	movq	%rsp, %rbp
	.cfi_def_cfa_register %rbp
Ltmp601:
	.loc	43 196 17 prologue_end
	movq	__ZN5ahash12random_state11RAND_SOURCE17h4b07ffa04d05f838E@GOTPCREL(%rip), %rdi
	callq	__ZN9once_cell4race8once_box16OnceBox$LT$T$GT$11get_or_init17h629d9bd21ecf7e37E
	movq	%rax, %rdi
	callq	__ZN80_$LT$alloc..boxed..Box$LT$T$C$A$GT$$u20$as$u20$core..convert..AsRef$LT$T$GT$$GT$6as_ref17h653beb1cf74d24cbE
	.loc	43 197 14 epilogue_begin
	popq	%rbp
	retq
Ltmp602:
Lfunc_end82:
	.cfi_endproc

	.p2align	4, 0x90
__ZN5ahash8hash_map21AHashMap$LT$K$C$V$GT$3new17h134cea6a45369ca3E:
Lfunc_begin83:
	.file	44 "/Users/khun/.cargo/registry/src/index.crates.io-6f17d22bba15001f/ahash-0.8.6/src" "hash_map.rs"
	.loc	44 56 0
	.cfi_startproc
	pushq	%rbp
	.cfi_def_cfa_offset 16
	.cfi_offset %rbp, -16
	movq	%rsp, %rbp
	.cfi_def_cfa_register %rbp
	subq	$112, %rsp
	movq	%rdi, -112(%rbp)
	movq	%rdi, -104(%rbp)
Ltmp603:
	.loc	44 57 39 prologue_end
	leaq	-32(%rbp), %rdi
	callq	__ZN5ahash12random_state11RandomState3new17h13f44490167ce283E
	.loc	44 57 18 is_stmt 0
	leaq	-96(%rbp), %rdi
	leaq	-32(%rbp), %rsi
	callq	__ZN3std11collections4hash3map24HashMap$LT$K$C$V$C$S$GT$11with_hasher17h38b668bd6531d673E
	movq	-112(%rbp), %rdi
	.loc	44 57 9
	leaq	-96(%rbp), %rsi
	movl	$64, %edx
	callq	_memcpy
	movq	-104(%rbp), %rax
	.loc	44 58 6 epilogue_begin is_stmt 1
	addq	$112, %rsp
	popq	%rbp
	retq
Ltmp604:
Lfunc_end83:
	.cfi_endproc

	.p2align	4, 0x90
__ZN5ahash8hash_map25AHashMap$LT$K$C$V$C$S$GT$6insert17hece0fd938921d0faE:
Lfunc_begin84:
	.loc	44 185 0
	.cfi_startproc
	pushq	%rbp
	.cfi_def_cfa_offset 16
	.cfi_offset %rbp, -16
	movq	%rsp, %rbp
	.cfi_def_cfa_register %rbp
	subq	$32, %rsp
	movq	%rdi, %rax
	movq	%rax, -24(%rbp)
	movq	%rsi, -16(%rbp)
	movl	%edx, -4(%rbp)
Ltmp605:
	.loc	44 186 9 prologue_end
	callq	__ZN3std11collections4hash3map24HashMap$LT$K$C$V$C$S$GT$6insert17heb4fab96233c2e2dE
Ltmp606:
	.loc	44 0 9 is_stmt 0
	movq	-24(%rbp), %rax
	.loc	44 187 6 epilogue_begin is_stmt 1
	addq	$32, %rsp
	popq	%rbp
	retq
Ltmp607:
Lfunc_end84:
	.cfi_endproc

	.p2align	4, 0x90
__ZN5ahash8hash_map25AHashMap$LT$K$C$V$C$S$GT$7get_mut17hb71ed014e183b4abE:
Lfunc_begin85:
	.loc	44 154 0
	.cfi_startproc
	pushq	%rbp
	.cfi_def_cfa_offset 16
	.cfi_offset %rbp, -16
	movq	%rsp, %rbp
	.cfi_def_cfa_register %rbp
	subq	$16, %rsp
	movq	%rdi, -16(%rbp)
	movq	%rsi, -8(%rbp)
Ltmp608:
	.loc	44 159 9 prologue_end
	callq	__ZN3std11collections4hash3map24HashMap$LT$K$C$V$C$S$GT$7get_mut17h5c368bb34696477aE
	.loc	44 160 6 epilogue_begin
	addq	$16, %rsp
	popq	%rbp
	retq
Ltmp609:
Lfunc_end85:
	.cfi_endproc

	.p2align	4, 0x90
__ZN5alloc3vec16Vec$LT$T$C$A$GT$16extend_desugared17h60c0888dbe165980E:
Lfunc_begin86:
	.loc	21 2788 0
	.cfi_startproc
	.cfi_personality 155, _rust_eh_personality
	.cfi_lsda 16, Lexception18
	pushq	%rbp
	.cfi_def_cfa_offset 16
	.cfi_offset %rbp, -16
	movq	%rsp, %rbp
	.cfi_def_cfa_register %rbp
	subq	$240, %rsp
	movq	%rdi, -232(%rbp)
	movq	%rsi, -224(%rbp)
Ltmp623:
	.loc	4 1267 5 prologue_end
	movq	$1, -216(%rbp)
	movq	%rdi, -80(%rbp)
Ltmp624:
LBB86_1:
Ltmp610:
	.loc	4 0 5 is_stmt 0
	movq	-224(%rbp), %rsi
	leaq	-208(%rbp), %rdi
	.loc	21 2796 35 is_stmt 1
	callq	__ZN115_$LT$core..iter..adapters..filter_map..FilterMap$LT$I$C$F$GT$$u20$as$u20$core..iter..traits..iterator..Iterator$GT$4next17hef6f3ea3014c957bE
Ltmp611:
	jmp	LBB86_4
Ltmp625:
LBB86_2:
	.loc	21 2788 5
	movq	-72(%rbp), %rdi
	callq	__Unwind_Resume
Ltmp626:
LBB86_3:
Ltmp614:
	.loc	21 0 5 is_stmt 0
	movq	%rax, %rcx
	movl	%edx, %eax
	movq	%rcx, -72(%rbp)
	movl	%eax, -64(%rbp)
	jmp	LBB86_2
Ltmp627:
LBB86_4:
	.loc	21 2796 19 is_stmt 1
	movq	-208(%rbp), %rdx
	movl	$1, %eax
	xorl	%ecx, %ecx
	cmpq	$0, %rdx
	cmoveq	%rcx, %rax
	cmpq	$1, %rax
	jne	LBB86_6
Ltmp628:
	.loc	21 0 19 is_stmt 0
	movq	-232(%rbp), %rax
	.loc	21 2796 24
	movq	-208(%rbp), %rcx
	movq	%rcx, -176(%rbp)
	movq	-200(%rbp), %rcx
	movq	%rcx, -168(%rbp)
	movq	-192(%rbp), %rcx
	movq	%rcx, -160(%rbp)
	movq	-184(%rbp), %rcx
	movq	%rcx, -152(%rbp)
Ltmp629:
	.loc	21 2051 9 is_stmt 1
	movq	16(%rax), %rax
	movq	%rax, -240(%rbp)
	movq	%rax, -56(%rbp)
Ltmp630:
	.loc	22 231 12
	xorl	%eax, %eax
	testb	$1, %al
	jne	LBB86_8
	jmp	LBB86_7
Ltmp631:
LBB86_6:
Ltmp612:
	.loc	22 0 12 is_stmt 0
	leaq	-208(%rbp), %rdi
	.loc	21 2796 9 is_stmt 1
	callq	__ZN4core3ptr89drop_in_place$LT$core..option..Option$LT$sigalign..results..TargetAlignmentResult$GT$$GT$17h9336403c98744d3fE
Ltmp613:
	jmp	LBB86_18
Ltmp632:
LBB86_7:
	.loc	21 0 9 is_stmt 0
	movq	-232(%rbp), %rax
Ltmp633:
	.loc	22 231 44 is_stmt 1
	movq	8(%rax), %rax
	movq	%rax, -144(%rbp)
	.loc	22 231 9 is_stmt 0
	jmp	LBB86_9
Ltmp634:
LBB86_8:
	.loc	22 231 24
	movq	$-1, -144(%rbp)
Ltmp635:
LBB86_9:
	.loc	22 0 24
	movq	-240(%rbp), %rax
	.loc	21 2798 16 is_stmt 1
	cmpq	-144(%rbp), %rax
	je	LBB86_11
Ltmp636:
LBB86_10:
	.loc	21 0 16 is_stmt 0
	movq	-232(%rbp), %rax
	movq	-240(%rbp), %rcx
Ltmp637:
	.loc	22 223 9 is_stmt 1
	movq	(%rax), %rdx
	movq	%rdx, -32(%rbp)
Ltmp638:
	.loc	23 326 9
	movq	%rdx, -24(%rbp)
Ltmp639:
	.loc	5 1024 18
	movq	%rcx, %rsi
	shlq	$5, %rsi
	addq	%rsi, %rdx
	movq	%rdx, -16(%rbp)
Ltmp640:
	.loc	21 2803 56
	movq	-176(%rbp), %rsi
	movq	%rsi, -112(%rbp)
	movq	-168(%rbp), %rsi
	movq	%rsi, -104(%rbp)
	movq	-160(%rbp), %rsi
	movq	%rsi, -96(%rbp)
	movq	-152(%rbp), %rsi
	movq	%rsi, -88(%rbp)
Ltmp641:
	.loc	7 1378 9
	movq	-112(%rbp), %rsi
	movq	%rsi, (%rdx)
	movq	-104(%rbp), %rsi
	movq	%rsi, 8(%rdx)
	movq	-96(%rbp), %rsi
	movq	%rsi, 16(%rdx)
	movq	-88(%rbp), %rsi
	movq	%rsi, 24(%rdx)
Ltmp642:
	.loc	21 2807 30
	addq	$1, %rcx
	movq	%rcx, -8(%rbp)
Ltmp643:
	.loc	21 1366 9
	movq	%rcx, 16(%rax)
Ltmp644:
	.loc	21 2796 9
	jmp	LBB86_1
Ltmp645:
LBB86_11:
Ltmp615:
	.loc	21 0 9 is_stmt 0
	movq	-224(%rbp), %rsi
	leaq	-136(%rbp), %rdi
Ltmp646:
	.loc	21 2799 34 is_stmt 1
	callq	__ZN115_$LT$core..iter..adapters..filter_map..FilterMap$LT$I$C$F$GT$$u20$as$u20$core..iter..traits..iterator..Iterator$GT$9size_hint17ha868cb9598d75677E
Ltmp616:
	jmp	LBB86_14
Ltmp647:
LBB86_12:
	.loc	21 2809 9
	movb	$1, %al
	testb	$1, %al
	jne	LBB86_16
	jmp	LBB86_2
Ltmp648:
LBB86_13:
Ltmp619:
	.loc	21 0 9 is_stmt 0
	movq	%rax, %rcx
	movl	%edx, %eax
	movq	%rcx, -72(%rbp)
	movl	%eax, -64(%rbp)
	jmp	LBB86_12
Ltmp649:
LBB86_14:
	movq	-232(%rbp), %rdi
Ltmp650:
	.loc	21 2799 22 is_stmt 1
	movq	-136(%rbp), %rax
	movq	%rax, -48(%rbp)
Ltmp651:
	.loc	4 1267 5
	incq	%rax
	movq	$-1, %rcx
	cmoveq	%rcx, %rax
	movq	%rax, -40(%rbp)
	movq	-40(%rbp), %rsi
Ltmp652:
Ltmp617:
	.loc	21 2800 17
	callq	__ZN5alloc3vec16Vec$LT$T$C$A$GT$7reserve17h4c5aaec1313f0468E
Ltmp618:
	jmp	LBB86_15
Ltmp653:
LBB86_15:
	.loc	21 2798 13
	jmp	LBB86_10
Ltmp654:
LBB86_16:
Ltmp620:
	.loc	21 0 13 is_stmt 0
	leaq	-176(%rbp), %rdi
	.loc	21 2809 9 is_stmt 1
	callq	__ZN4core3ptr61drop_in_place$LT$sigalign..results..TargetAlignmentResult$GT$17h958ce2b0ac89169cE
Ltmp621:
	jmp	LBB86_2
Ltmp655:
LBB86_17:
Ltmp622:
	.loc	21 2788 5
	callq	__ZN4core9panicking19panic_cannot_unwind17h0477e80cce5de375E
Ltmp656:
LBB86_18:
	.loc	21 2810 6 epilogue_begin
	addq	$240, %rsp
	popq	%rbp
	retq
Ltmp657:
Lfunc_end86:
	.cfi_endproc
	.section	__TEXT,__gcc_except_tab
	.p2align	2, 0x0
GCC_except_table86:
Lexception18:
	.byte	255
	.byte	155
	.uleb128 Lttbase6-Lttbaseref6
Lttbaseref6:
	.byte	1
	.uleb128 Lcst_end18-Lcst_begin18
Lcst_begin18:
	.uleb128 Ltmp610-Lfunc_begin86
	.uleb128 Ltmp611-Ltmp610
	.uleb128 Ltmp614-Lfunc_begin86
	.byte	0
	.uleb128 Ltmp611-Lfunc_begin86
	.uleb128 Ltmp612-Ltmp611
	.byte	0
	.byte	0
	.uleb128 Ltmp612-Lfunc_begin86
	.uleb128 Ltmp613-Ltmp612
	.uleb128 Ltmp614-Lfunc_begin86
	.byte	0
	.uleb128 Ltmp615-Lfunc_begin86
	.uleb128 Ltmp618-Ltmp615
	.uleb128 Ltmp619-Lfunc_begin86
	.byte	0
	.uleb128 Ltmp620-Lfunc_begin86
	.uleb128 Ltmp621-Ltmp620
	.uleb128 Ltmp622-Lfunc_begin86
	.byte	1
Lcst_end18:
	.byte	127
	.byte	0
	.p2align	2, 0x0
Lttbase6:
	.byte	0
	.p2align	2, 0x0

	.section	__TEXT,__text,regular,pure_instructions
	.p2align	4, 0x90
__ZN5alloc3vec16Vec$LT$T$C$A$GT$16extend_desugared17hd7361e8efb875cd8E:
Lfunc_begin87:
	.loc	21 2788 0
	.cfi_startproc
	.cfi_personality 155, _rust_eh_personality
	.cfi_lsda 16, Lexception19
	pushq	%rbp
	.cfi_def_cfa_offset 16
	.cfi_offset %rbp, -16
	movq	%rsp, %rbp
	.cfi_def_cfa_register %rbp
	subq	$240, %rsp
	movq	%rdi, -232(%rbp)
	movq	%rsi, -224(%rbp)
Ltmp671:
	.loc	4 1267 5 prologue_end
	movq	$1, -216(%rbp)
	movq	%rdi, -80(%rbp)
Ltmp672:
LBB87_1:
Ltmp658:
	.loc	4 0 5 is_stmt 0
	movq	-224(%rbp), %rsi
	leaq	-208(%rbp), %rdi
	.loc	21 2796 35 is_stmt 1
	callq	__ZN115_$LT$core..iter..adapters..filter_map..FilterMap$LT$I$C$F$GT$$u20$as$u20$core..iter..traits..iterator..Iterator$GT$4next17h5f6e285e57f2e7feE
Ltmp659:
	jmp	LBB87_4
Ltmp673:
LBB87_2:
	.loc	21 2788 5
	movq	-72(%rbp), %rdi
	callq	__Unwind_Resume
Ltmp674:
LBB87_3:
Ltmp662:
	.loc	21 0 5 is_stmt 0
	movq	%rax, %rcx
	movl	%edx, %eax
	movq	%rcx, -72(%rbp)
	movl	%eax, -64(%rbp)
	jmp	LBB87_2
Ltmp675:
LBB87_4:
	.loc	21 2796 19 is_stmt 1
	movq	-208(%rbp), %rdx
	movl	$1, %eax
	xorl	%ecx, %ecx
	cmpq	$0, %rdx
	cmoveq	%rcx, %rax
	cmpq	$1, %rax
	jne	LBB87_6
Ltmp676:
	.loc	21 0 19 is_stmt 0
	movq	-232(%rbp), %rax
	.loc	21 2796 24
	movq	-208(%rbp), %rcx
	movq	%rcx, -176(%rbp)
	movq	-200(%rbp), %rcx
	movq	%rcx, -168(%rbp)
	movq	-192(%rbp), %rcx
	movq	%rcx, -160(%rbp)
	movq	-184(%rbp), %rcx
	movq	%rcx, -152(%rbp)
Ltmp677:
	.loc	21 2051 9 is_stmt 1
	movq	16(%rax), %rax
	movq	%rax, -240(%rbp)
	movq	%rax, -56(%rbp)
Ltmp678:
	.loc	22 231 12
	xorl	%eax, %eax
	testb	$1, %al
	jne	LBB87_8
	jmp	LBB87_7
Ltmp679:
LBB87_6:
Ltmp660:
	.loc	22 0 12 is_stmt 0
	leaq	-208(%rbp), %rdi
	.loc	21 2796 9 is_stmt 1
	callq	__ZN4core3ptr89drop_in_place$LT$core..option..Option$LT$sigalign..results..TargetAlignmentResult$GT$$GT$17h9336403c98744d3fE
Ltmp661:
	jmp	LBB87_18
Ltmp680:
LBB87_7:
	.loc	21 0 9 is_stmt 0
	movq	-232(%rbp), %rax
Ltmp681:
	.loc	22 231 44 is_stmt 1
	movq	8(%rax), %rax
	movq	%rax, -144(%rbp)
	.loc	22 231 9 is_stmt 0
	jmp	LBB87_9
Ltmp682:
LBB87_8:
	.loc	22 231 24
	movq	$-1, -144(%rbp)
Ltmp683:
LBB87_9:
	.loc	22 0 24
	movq	-240(%rbp), %rax
	.loc	21 2798 16 is_stmt 1
	cmpq	-144(%rbp), %rax
	je	LBB87_11
Ltmp684:
LBB87_10:
	.loc	21 0 16 is_stmt 0
	movq	-232(%rbp), %rax
	movq	-240(%rbp), %rcx
Ltmp685:
	.loc	22 223 9 is_stmt 1
	movq	(%rax), %rdx
	movq	%rdx, -32(%rbp)
Ltmp686:
	.loc	23 326 9
	movq	%rdx, -24(%rbp)
Ltmp687:
	.loc	5 1024 18
	movq	%rcx, %rsi
	shlq	$5, %rsi
	addq	%rsi, %rdx
	movq	%rdx, -16(%rbp)
Ltmp688:
	.loc	21 2803 56
	movq	-176(%rbp), %rsi
	movq	%rsi, -112(%rbp)
	movq	-168(%rbp), %rsi
	movq	%rsi, -104(%rbp)
	movq	-160(%rbp), %rsi
	movq	%rsi, -96(%rbp)
	movq	-152(%rbp), %rsi
	movq	%rsi, -88(%rbp)
Ltmp689:
	.loc	7 1378 9
	movq	-112(%rbp), %rsi
	movq	%rsi, (%rdx)
	movq	-104(%rbp), %rsi
	movq	%rsi, 8(%rdx)
	movq	-96(%rbp), %rsi
	movq	%rsi, 16(%rdx)
	movq	-88(%rbp), %rsi
	movq	%rsi, 24(%rdx)
Ltmp690:
	.loc	21 2807 30
	addq	$1, %rcx
	movq	%rcx, -8(%rbp)
Ltmp691:
	.loc	21 1366 9
	movq	%rcx, 16(%rax)
Ltmp692:
	.loc	21 2796 9
	jmp	LBB87_1
Ltmp693:
LBB87_11:
Ltmp663:
	.loc	21 0 9 is_stmt 0
	movq	-224(%rbp), %rsi
	leaq	-136(%rbp), %rdi
Ltmp694:
	.loc	21 2799 34 is_stmt 1
	callq	__ZN115_$LT$core..iter..adapters..filter_map..FilterMap$LT$I$C$F$GT$$u20$as$u20$core..iter..traits..iterator..Iterator$GT$9size_hint17h4ab7e464ca2c9ca9E
Ltmp664:
	jmp	LBB87_14
Ltmp695:
LBB87_12:
	.loc	21 2809 9
	movb	$1, %al
	testb	$1, %al
	jne	LBB87_16
	jmp	LBB87_2
Ltmp696:
LBB87_13:
Ltmp667:
	.loc	21 0 9 is_stmt 0
	movq	%rax, %rcx
	movl	%edx, %eax
	movq	%rcx, -72(%rbp)
	movl	%eax, -64(%rbp)
	jmp	LBB87_12
Ltmp697:
LBB87_14:
	movq	-232(%rbp), %rdi
Ltmp698:
	.loc	21 2799 22 is_stmt 1
	movq	-136(%rbp), %rax
	movq	%rax, -48(%rbp)
Ltmp699:
	.loc	4 1267 5
	incq	%rax
	movq	$-1, %rcx
	cmoveq	%rcx, %rax
	movq	%rax, -40(%rbp)
	movq	-40(%rbp), %rsi
Ltmp700:
Ltmp665:
	.loc	21 2800 17
	callq	__ZN5alloc3vec16Vec$LT$T$C$A$GT$7reserve17h4c5aaec1313f0468E
Ltmp666:
	jmp	LBB87_15
Ltmp701:
LBB87_15:
	.loc	21 2798 13
	jmp	LBB87_10
Ltmp702:
LBB87_16:
Ltmp668:
	.loc	21 0 13 is_stmt 0
	leaq	-176(%rbp), %rdi
	.loc	21 2809 9 is_stmt 1
	callq	__ZN4core3ptr61drop_in_place$LT$sigalign..results..TargetAlignmentResult$GT$17h958ce2b0ac89169cE
Ltmp669:
	jmp	LBB87_2
Ltmp703:
LBB87_17:
Ltmp670:
	.loc	21 2788 5
	callq	__ZN4core9panicking19panic_cannot_unwind17h0477e80cce5de375E
Ltmp704:
LBB87_18:
	.loc	21 2810 6 epilogue_begin
	addq	$240, %rsp
	popq	%rbp
	retq
Ltmp705:
Lfunc_end87:
	.cfi_endproc
	.section	__TEXT,__gcc_except_tab
	.p2align	2, 0x0
GCC_except_table87:
Lexception19:
	.byte	255
	.byte	155
	.uleb128 Lttbase7-Lttbaseref7
Lttbaseref7:
	.byte	1
	.uleb128 Lcst_end19-Lcst_begin19
Lcst_begin19:
	.uleb128 Ltmp658-Lfunc_begin87
	.uleb128 Ltmp659-Ltmp658
	.uleb128 Ltmp662-Lfunc_begin87
	.byte	0
	.uleb128 Ltmp659-Lfunc_begin87
	.uleb128 Ltmp660-Ltmp659
	.byte	0
	.byte	0
	.uleb128 Ltmp660-Lfunc_begin87
	.uleb128 Ltmp661-Ltmp660
	.uleb128 Ltmp662-Lfunc_begin87
	.byte	0
	.uleb128 Ltmp663-Lfunc_begin87
	.uleb128 Ltmp666-Ltmp663
	.uleb128 Ltmp667-Lfunc_begin87
	.byte	0
	.uleb128 Ltmp668-Lfunc_begin87
	.uleb128 Ltmp669-Ltmp668
	.uleb128 Ltmp670-Lfunc_begin87
	.byte	1
Lcst_end19:
	.byte	127
	.byte	0
	.p2align	2, 0x0
Lttbase7:
	.byte	0
	.p2align	2, 0x0

	.section	__TEXT,__text,regular,pure_instructions
	.p2align	4, 0x90
__ZN5alloc3vec16Vec$LT$T$C$A$GT$7reserve17h4c5aaec1313f0468E:
Lfunc_begin88:
	.loc	21 908 0
	.cfi_startproc
	pushq	%rbp
	.cfi_def_cfa_offset 16
	.cfi_offset %rbp, -16
	movq	%rsp, %rbp
	.cfi_def_cfa_register %rbp
	subq	$64, %rsp
	movq	%rdi, -64(%rbp)
	movq	%rsi, -56(%rbp)
	movq	%rdi, -32(%rbp)
	movq	%rsi, -24(%rbp)
Ltmp706:
	.loc	21 909 9 prologue_end
	movq	%rdi, -16(%rbp)
	.loc	21 909 26 is_stmt 0
	movq	16(%rdi), %rax
	movq	%rax, -48(%rbp)
	movq	%rax, -8(%rbp)
Ltmp707:
	.loc	22 231 12 is_stmt 1
	xorl	%eax, %eax
	testb	$1, %al
	jne	LBB88_2
	.loc	22 0 12 is_stmt 0
	movq	-64(%rbp), %rax
	.loc	22 231 44
	movq	8(%rax), %rax
	movq	%rax, -40(%rbp)
	.loc	22 231 9
	jmp	LBB88_3
LBB88_2:
	.loc	22 231 24
	movq	$-1, -40(%rbp)
Ltmp708:
LBB88_3:
	.loc	22 0 24
	movq	-56(%rbp), %rax
	movq	-48(%rbp), %rdx
Ltmp709:
	.loc	4 1267 5 is_stmt 1
	movq	-40(%rbp), %rcx
	subq	%rdx, %rcx
Ltmp710:
	.loc	22 365 9
	cmpq	%rcx, %rax
Ltmp711:
	.loc	22 292 12
	ja	LBB88_5
Ltmp712:
LBB88_4:
	.loc	21 910 6 epilogue_begin
	addq	$64, %rsp
	popq	%rbp
	retq
LBB88_5:
	.loc	21 0 6 is_stmt 0
	movq	-56(%rbp), %rdx
	movq	-48(%rbp), %rsi
	movq	-64(%rbp), %rdi
Ltmp713:
	.loc	22 293 13 is_stmt 1
	callq	__ZN5alloc7raw_vec19RawVec$LT$T$C$A$GT$7reserve21do_reserve_and_handle17he615eae929f335c6E
	jmp	LBB88_4
Ltmp714:
Lfunc_end88:
	.cfi_endproc

	.p2align	4, 0x90
__ZN5alloc3vec9into_iter21IntoIter$LT$T$C$A$GT$16as_raw_mut_slice17h187b00a40d485adaE:
Lfunc_begin89:
	.loc	2 98 0
	.cfi_startproc
	pushq	%rbp
	.cfi_def_cfa_offset 16
	.cfi_offset %rbp, -16
	movq	%rsp, %rbp
	.cfi_def_cfa_register %rbp
	subq	$80, %rsp
	movq	%rdi, -64(%rbp)
Ltmp715:
	.loc	2 99 39 prologue_end
	movq	-64(%rbp), %rax
	movq	16(%rax), %rax
	movq	%rax, -72(%rbp)
	movq	%rax, -24(%rbp)
Ltmp716:
	.loc	35 156 9
	movq	-64(%rbp), %rdi
	callq	__ZN4core4iter6traits10exact_size17ExactSizeIterator3len17hbd1ec8db41c89859E
	movq	-72(%rbp), %rcx
	movq	%rax, -16(%rbp)
Ltmp717:
	.loc	5 61 9
	movq	%rcx, -8(%rbp)
Ltmp718:
	.loc	8 135 36
	movq	%rcx, -40(%rbp)
	movq	%rax, -32(%rbp)
	.loc	8 135 14 is_stmt 0
	movq	-40(%rbp), %rcx
	movq	-32(%rbp), %rax
	movq	%rcx, -56(%rbp)
	movq	%rax, -48(%rbp)
	movq	-56(%rbp), %rax
	movq	-48(%rbp), %rdx
Ltmp719:
	.loc	2 100 6 epilogue_begin is_stmt 1
	addq	$80, %rsp
	popq	%rbp
	retq
Ltmp720:
Lfunc_end89:
	.cfi_endproc

	.p2align	4, 0x90
__ZN5alloc7raw_vec14handle_reserve17h08e1d6736f65fd73E:
Lfunc_begin90:
	.loc	22 503 0
	.cfi_startproc
	pushq	%rbp
	.cfi_def_cfa_offset 16
	.cfi_offset %rbp, -16
	movq	%rsp, %rbp
	.cfi_def_cfa_register %rbp
	subq	$48, %rsp
	movq	%rdi, -32(%rbp)
	movq	%rsi, -24(%rbp)
Ltmp721:
	.loc	22 504 11 prologue_end
	callq	__ZN4core6result19Result$LT$T$C$E$GT$7map_err17h8d2042a03bf6ad2dE
	movq	%rdx, -40(%rbp)
	movq	%rax, -48(%rbp)
	movabsq	$-9223372036854775807, %rdx
	movl	$1, %eax
	xorl	%ecx, %ecx
	cmpq	%rdx, -48(%rbp)
	cmoveq	%rcx, %rax
	.loc	22 504 5 is_stmt 0
	cmpq	$0, %rax
	jne	LBB90_2
	.loc	22 509 2 epilogue_begin is_stmt 1
	addq	$48, %rsp
	popq	%rbp
	retq
LBB90_2:
	.loc	22 504 11
	movl	$1, %eax
	xorl	%ecx, %ecx
	cmpq	$0, -48(%rbp)
	cmoveq	%rcx, %rax
	.loc	22 504 5 is_stmt 0
	cmpq	$0, %rax
	jne	LBB90_4
	.loc	22 505 34 is_stmt 1
	callq	__ZN5alloc7raw_vec17capacity_overflow17h29d736d1a2dddf45E
LBB90_4:
	.loc	22 506 26
	movq	-48(%rbp), %rdi
	movq	-40(%rbp), %rsi
	movq	%rdi, -16(%rbp)
	movq	%rsi, -8(%rbp)
Ltmp722:
	.loc	22 506 43 is_stmt 0
	callq	__ZN5alloc5alloc18handle_alloc_error17he557db7542d31fa0E
Ltmp723:
Lfunc_end90:
	.cfi_endproc

	.p2align	4, 0x90
__ZN5alloc7raw_vec19RawVec$LT$T$C$A$GT$7reserve21do_reserve_and_handle17he615eae929f335c6E:
Lfunc_begin91:
	.loc	22 284 0 is_stmt 1
	.cfi_startproc
	pushq	%rbp
	.cfi_def_cfa_offset 16
	.cfi_offset %rbp, -16
	movq	%rsp, %rbp
	.cfi_def_cfa_register %rbp
	subq	$32, %rsp
	movq	%rdi, -24(%rbp)
	movq	%rsi, -16(%rbp)
	movq	%rdx, -8(%rbp)
Ltmp724:
	.loc	22 289 28 prologue_end
	callq	__ZN5alloc7raw_vec19RawVec$LT$T$C$A$GT$14grow_amortized17hf0be97eeee6a0191E
	movq	%rax, %rdi
	movq	%rdx, %rsi
	.loc	22 289 13 is_stmt 0
	callq	__ZN5alloc7raw_vec14handle_reserve17h08e1d6736f65fd73E
	.loc	22 290 10 epilogue_begin is_stmt 1
	addq	$32, %rsp
	popq	%rbp
	retq
Ltmp725:
Lfunc_end91:
	.cfi_endproc

	.p2align	4, 0x90
__ZN63_$LT$I$u20$as$u20$core..iter..traits..collect..IntoIterator$GT$9into_iter17h352135f64c4f7cf6E:
Lfunc_begin92:
	.file	45 "/rustc/cc66ad468955717ab92600c770da8c1601a4ff33/library/core/src/iter/traits" "collect.rs"
	.loc	45 277 0
	.cfi_startproc
	pushq	%rbp
	.cfi_def_cfa_offset 16
	.cfi_offset %rbp, -16
	movq	%rsp, %rbp
	.cfi_def_cfa_register %rbp
	subq	$16, %rsp
	movq	%rdi, %rax
	movq	%rax, -8(%rbp)
Ltmp726:
	.loc	45 278 9 prologue_end
	movl	$136, %edx
	callq	_memcpy
Ltmp727:
	.loc	45 0 9 is_stmt 0
	movq	-8(%rbp), %rax
	.loc	45 279 6 epilogue_begin is_stmt 1
	addq	$16, %rsp
	popq	%rbp
	retq
Ltmp728:
Lfunc_end92:
	.cfi_endproc

	.p2align	4, 0x90
__ZN63_$LT$I$u20$as$u20$core..iter..traits..collect..IntoIterator$GT$9into_iter17h7246361bddea94f8E:
Lfunc_begin93:
	.loc	45 277 0
	.cfi_startproc
	pushq	%rbp
	.cfi_def_cfa_offset 16
	.cfi_offset %rbp, -16
	movq	%rsp, %rbp
	.cfi_def_cfa_register %rbp
	subq	$16, %rsp
	movq	%rdi, %rax
	movq	%rax, -8(%rbp)
Ltmp729:
	.loc	45 278 9 prologue_end
	movl	$152, %edx
	callq	_memcpy
Ltmp730:
	.loc	45 0 9 is_stmt 0
	movq	-8(%rbp), %rax
	.loc	45 279 6 epilogue_begin is_stmt 1
	addq	$16, %rsp
	popq	%rbp
	retq
Ltmp731:
Lfunc_end93:
	.cfi_endproc

	.p2align	4, 0x90
__ZN63_$LT$alloc..alloc..Global$u20$as$u20$core..alloc..Allocator$GT$10deallocate17h5ec3c1fade8b9919E:
Lfunc_begin94:
	.file	46 "/rustc/cc66ad468955717ab92600c770da8c1601a4ff33/library/alloc/src" "alloc.rs"
	.loc	46 250 0
	.cfi_startproc
	pushq	%rbp
	.cfi_def_cfa_offset 16
	.cfi_offset %rbp, -16
	movq	%rsp, %rbp
	.cfi_def_cfa_register %rbp
	subq	$96, %rsp
	movq	%rsi, -88(%rbp)
	movq	%rdx, -80(%rbp)
	movq	%rcx, -72(%rbp)
	movq	%rdi, -56(%rbp)
	movq	%rsi, -48(%rbp)
	movq	%rdx, -40(%rbp)
	movq	%rcx, -32(%rbp)
Ltmp732:
	.loc	46 251 12 prologue_end
	cmpq	$0, %rcx
	jne	LBB94_2
	.loc	46 251 9 is_stmt 0
	jmp	LBB94_3
LBB94_2:
	.loc	46 0 9
	movq	-72(%rbp), %rsi
	movq	-88(%rbp), %rdi
	movq	-80(%rbp), %rax
Ltmp733:
	.loc	23 326 9 is_stmt 1
	movq	%rdi, -24(%rbp)
Ltmp734:
	.loc	46 254 44
	movq	%rsi, -16(%rbp)
	movq	%rax, -8(%rbp)
Ltmp735:
	.file	47 "/rustc/cc66ad468955717ab92600c770da8c1601a4ff33/library/core/src/ptr" "alignment.rs"
	.loc	47 96 9
	movq	%rax, -64(%rbp)
	movq	-64(%rbp), %rdx
Ltmp736:
	.loc	46 117 14
	callq	___rust_dealloc
Ltmp737:
LBB94_3:
	.loc	46 256 6 epilogue_begin
	addq	$96, %rsp
	popq	%rbp
	retq
Ltmp738:
Lfunc_end94:
	.cfi_endproc
	.file	48 "/rustc/cc66ad468955717ab92600c770da8c1601a4ff33/library/core/src/alloc" "layout.rs"

	.p2align	4, 0x90
__ZN79_$LT$hashbrown..raw..RawTable$LT$T$C$A$GT$$u20$as$u20$core..ops..drop..Drop$GT$4drop17h0cfb9f61ee40f749E:
Lfunc_begin95:
	.loc	17 2696 0
	.cfi_startproc
	pushq	%rbp
	.cfi_def_cfa_offset 16
	.cfi_offset %rbp, -16
	movq	%rsp, %rbp
	.cfi_def_cfa_register %rbp
	subq	$16, %rsp
	movq	%rdi, -16(%rbp)
	movq	%rdi, -8(%rbp)
Ltmp739:
	.loc	17 2142 9 prologue_end
	cmpq	$0, 8(%rdi)
	sete	%al
Ltmp740:
	.loc	17 2697 12
	xorb	$-1, %al
	testb	$1, %al
	jne	LBB95_2
LBB95_1:
	.loc	17 2703 6 epilogue_begin
	addq	$16, %rsp
	popq	%rbp
	retq
LBB95_2:
	.loc	17 0 6 is_stmt 0
	movq	-16(%rbp), %rdi
	.loc	17 2699 17 is_stmt 1
	callq	__ZN9hashbrown3raw21RawTable$LT$T$C$A$GT$13drop_elements17h69aaa7043db3ff69E
	movq	-16(%rbp), %rdi
	.loc	17 2700 17
	callq	__ZN9hashbrown3raw21RawTable$LT$T$C$A$GT$12free_buckets17hf72aa60b2c5db81fE
	jmp	LBB95_1
Ltmp741:
Lfunc_end95:
	.cfi_endproc

	.p2align	4, 0x90
__ZN86_$LT$alloc..vec..into_iter..IntoIter$LT$T$C$A$GT$$u20$as$u20$core..ops..drop..Drop$GT$4drop17hfcabc6b2a9573b22E:
Lfunc_begin96:
	.loc	2 399 0
	.cfi_startproc
	.cfi_personality 155, _rust_eh_personality
	.cfi_lsda 16, Lexception20
	pushq	%rbp
	.cfi_def_cfa_offset 16
	.cfi_offset %rbp, -16
	movq	%rsp, %rbp
	.cfi_def_cfa_register %rbp
	subq	$48, %rsp
	movq	%rdi, -24(%rbp)
Ltmp750:
	.loc	2 413 21 prologue_end
	movq	%rdi, -32(%rbp)
Ltmp751:
	.loc	2 416 32
	movq	-32(%rbp), %rdi
Ltmp742:
	callq	__ZN5alloc3vec9into_iter21IntoIter$LT$T$C$A$GT$16as_raw_mut_slice17h187b00a40d485adaE
Ltmp743:
	movq	%rdx, -48(%rbp)
	movq	%rax, -40(%rbp)
	jmp	LBB96_3
Ltmp752:
LBB96_1:
Ltmp747:
	.loc	2 0 32 is_stmt 0
	leaq	-32(%rbp), %rdi
	.loc	2 419 5 is_stmt 1
	callq	__ZN4core3ptr185drop_in_place$LT$$LT$alloc..vec..into_iter..IntoIter$LT$T$C$A$GT$$u20$as$u20$core..ops..drop..Drop$GT$..drop..DropGuard$LT$sigalign..core..PatternLocation$C$alloc..alloc..Global$GT$$GT$17h5ccee5d524e71914E
Ltmp748:
	jmp	LBB96_6
LBB96_2:
Ltmp746:
	.loc	2 0 5 is_stmt 0
	movq	%rax, %rcx
	movl	%edx, %eax
	movq	%rcx, -16(%rbp)
	movl	%eax, -8(%rbp)
	jmp	LBB96_1
LBB96_3:
Ltmp744:
	movq	-48(%rbp), %rsi
	movq	-40(%rbp), %rdi
Ltmp753:
	.loc	2 416 13 is_stmt 1
	callq	__ZN4core3ptr62drop_in_place$LT$$u5b$sigalign..core..PatternLocation$u5d$$GT$17h4d26ad191f7094dbE
Ltmp745:
	jmp	LBB96_4
Ltmp754:
LBB96_4:
	.loc	2 419 5
	leaq	-32(%rbp), %rdi
	callq	__ZN4core3ptr185drop_in_place$LT$$LT$alloc..vec..into_iter..IntoIter$LT$T$C$A$GT$$u20$as$u20$core..ops..drop..Drop$GT$..drop..DropGuard$LT$sigalign..core..PatternLocation$C$alloc..alloc..Global$GT$$GT$17h5ccee5d524e71914E
	.loc	2 419 6 epilogue_begin is_stmt 0
	addq	$48, %rsp
	popq	%rbp
	retq
LBB96_5:
Ltmp749:
	.loc	2 399 5 is_stmt 1
	callq	__ZN4core9panicking19panic_cannot_unwind17h0477e80cce5de375E
LBB96_6:
	movq	-16(%rbp), %rdi
	callq	__Unwind_Resume
Ltmp755:
Lfunc_end96:
	.cfi_endproc
	.section	__TEXT,__gcc_except_tab
	.p2align	2, 0x0
GCC_except_table96:
Lexception20:
	.byte	255
	.byte	155
	.uleb128 Lttbase8-Lttbaseref8
Lttbaseref8:
	.byte	1
	.uleb128 Lcst_end20-Lcst_begin20
Lcst_begin20:
	.uleb128 Ltmp742-Lfunc_begin96
	.uleb128 Ltmp743-Ltmp742
	.uleb128 Ltmp746-Lfunc_begin96
	.byte	0
	.uleb128 Ltmp747-Lfunc_begin96
	.uleb128 Ltmp748-Ltmp747
	.uleb128 Ltmp749-Lfunc_begin96
	.byte	1
	.uleb128 Ltmp744-Lfunc_begin96
	.uleb128 Ltmp745-Ltmp744
	.uleb128 Ltmp746-Lfunc_begin96
	.byte	0
	.uleb128 Ltmp745-Lfunc_begin96
	.uleb128 Lfunc_end96-Ltmp745
	.byte	0
	.byte	0
Lcst_end20:
	.byte	127
	.byte	0
	.p2align	2, 0x0
Lttbase8:
	.byte	0
	.p2align	2, 0x0

	.section	__TEXT,__text,regular,pure_instructions
	.p2align	4, 0x90
__ZN89_$LT$ahash..hash_map..AHashMap$LT$K$C$V$C$S$GT$$u20$as$u20$core..ops..deref..DerefMut$GT$9deref_mut17h87ad8fef860c4796E:
Lfunc_begin97:
	.loc	44 286 0
	.cfi_startproc
	pushq	%rbp
	.cfi_def_cfa_offset 16
	.cfi_offset %rbp, -16
	movq	%rsp, %rbp
	.cfi_def_cfa_register %rbp
	movq	%rdi, %rax
	movq	%rax, -8(%rbp)
Ltmp756:
	.loc	44 288 6 prologue_end epilogue_begin
	popq	%rbp
	retq
Ltmp757:
Lfunc_end97:
	.cfi_endproc

	.p2align	4, 0x90
__ZN8sigalign7aligner10alignments57_$LT$impl$u20$sigalign..aligner..Aligner$LT$M$C$A$GT$$GT$11align_query17h4e668470d393ddb1E:
Lfunc_begin98:
	.file	49 "/Users/khun/Dev/Repos/sigalign" "sigalign/src/aligner/alignments/mod.rs"
	.loc	49 27 0
	.cfi_startproc
	.cfi_personality 155, _rust_eh_personality
	.cfi_lsda 16, Lexception21
	pushq	%rbp
	.cfi_def_cfa_offset 16
	.cfi_offset %rbp, -16
	movq	%rsp, %rbp
	.cfi_def_cfa_register %rbp
	subq	$144, %rsp
	movq	%r8, -104(%rbp)
	movq	%rcx, -112(%rbp)
	movq	%rdx, -96(%rbp)
	movq	%rsi, -120(%rbp)
	movq	%rdi, %rax
	movq	-96(%rbp), %rdi
	movq	%rax, -136(%rbp)
	movq	%rax, -128(%rbp)
	movq	%rsi, -48(%rbp)
	movq	%rdi, -40(%rbp)
	movq	%rcx, -32(%rbp)
	movq	%r8, -24(%rbp)
Ltmp761:
	.loc	49 32 35 prologue_end
	callq	__ZN8sigalign9reference14pattern_search61_$LT$impl$u20$sigalign..reference..Reference$LT$I$C$S$GT$$GT$19get_sequence_buffer17h6dab92b8e180ad50E
	movq	-120(%rbp), %rsi
	movq	-112(%rbp), %r8
	movq	-104(%rbp), %r9
	movq	%rdx, %rcx
	movq	-96(%rbp), %rdx
	movq	%rcx, -80(%rbp)
	movq	%rax, -88(%rbp)
Ltmp758:
	leaq	-72(%rbp), %rdi
	leaq	-88(%rbp), %rcx
Ltmp762:
	.loc	49 33 22
	callq	__ZN8sigalign7aligner20Aligner$LT$M$C$A$GT$9alignment17h62f38eea23453242E
Ltmp759:
	jmp	LBB98_3
Ltmp763:
LBB98_1:
	.loc	49 27 5
	movq	-16(%rbp), %rdi
	callq	__Unwind_Resume
LBB98_2:
Ltmp760:
	.loc	49 0 5 is_stmt 0
	movq	%rax, %rcx
	movl	%edx, %eax
	movq	%rcx, -16(%rbp)
	movl	%eax, -8(%rbp)
	jmp	LBB98_1
LBB98_3:
	movq	-128(%rbp), %rax
	movq	-136(%rbp), %rcx
Ltmp764:
	.loc	49 34 9 is_stmt 1
	movq	-72(%rbp), %rdx
	movq	%rdx, (%rcx)
	movq	-64(%rbp), %rdx
	movq	%rdx, 8(%rcx)
	movq	-56(%rbp), %rdx
	movq	%rdx, 16(%rcx)
Ltmp765:
	.loc	49 35 6 epilogue_begin
	addq	$144, %rsp
	popq	%rbp
	retq
Ltmp766:
Lfunc_end98:
	.cfi_endproc
	.section	__TEXT,__gcc_except_tab
	.p2align	2, 0x0
GCC_except_table98:
Lexception21:
	.byte	255
	.byte	255
	.byte	1
	.uleb128 Lcst_end21-Lcst_begin21
Lcst_begin21:
	.uleb128 Lfunc_begin98-Lfunc_begin98
	.uleb128 Ltmp758-Lfunc_begin98
	.byte	0
	.byte	0
	.uleb128 Ltmp758-Lfunc_begin98
	.uleb128 Ltmp759-Ltmp758
	.uleb128 Ltmp760-Lfunc_begin98
	.byte	0
	.uleb128 Ltmp759-Lfunc_begin98
	.uleb128 Lfunc_end98-Ltmp759
	.byte	0
	.byte	0
Lcst_end21:
	.p2align	2, 0x0

	.section	__TEXT,__text,regular,pure_instructions
	.p2align	4, 0x90
__ZN8sigalign7aligner20Aligner$LT$M$C$A$GT$9alignment17h62f38eea23453242E:
Lfunc_begin99:
	.file	50 "/Users/khun/Dev/Repos/sigalign" "sigalign/src/aligner/mod.rs"
	.loc	50 156 0
	.cfi_startproc
	pushq	%rbp
	.cfi_def_cfa_offset 16
	.cfi_offset %rbp, -16
	movq	%rsp, %rbp
	.cfi_def_cfa_register %rbp
	subq	$240, %rsp
	movq	%r9, -216(%rbp)
	movq	%r8, -208(%rbp)
	movq	%rcx, -200(%rbp)
	movq	%rdx, -192(%rbp)
	movq	%rsi, -184(%rbp)
	movq	%rdi, -176(%rbp)
	movq	%rdi, -168(%rbp)
	movq	%rsi, -88(%rbp)
	movq	%rdx, -80(%rbp)
	movq	%rcx, -72(%rbp)
	movq	%r8, -64(%rbp)
	movq	%r9, -56(%rbp)
Ltmp767:
	.loc	50 162 46 prologue_end
	movq	%rsi, %rcx
	addq	$316, %rcx
	movq	%rcx, -160(%rbp)
	.loc	50 162 104 is_stmt 0
	movl	%r9d, %eax
	movl	%eax, -148(%rbp)
	movq	%rcx, -32(%rbp)
	movl	%eax, -24(%rbp)
Ltmp768:
	.file	51 "/Users/khun/Dev/Repos/sigalign" "sigalign/src/aligner/allocation_strategy/mod.rs"
	.loc	51 74 12 is_stmt 1
	cmpl	%eax, 316(%rsi)
	jae	LBB99_4
	.loc	51 0 12 is_stmt 0
	movl	-148(%rbp), %eax
	movq	-160(%rbp), %rcx
	movq	%rcx, -16(%rbp)
	movl	%eax, -4(%rbp)
Ltmp769:
	.loc	51 21 9 is_stmt 1
	addl	$200, %eax
	movl	%eax, -220(%rbp)
	setb	%al
	testb	$1, %al
	jne	LBB99_2
	jmp	LBB99_3
LBB99_2:
	leaq	_str.1(%rip), %rdi
	leaq	l___unnamed_12(%rip), %rdx
	movl	$28, %esi
	callq	__ZN4core9panicking5panic17h604fa998dd50d7a6E
Ltmp770:
LBB99_3:
	.loc	51 0 9 is_stmt 0
	movl	-220(%rbp), %eax
	movq	-160(%rbp), %rcx
	.loc	51 77 30 is_stmt 1
	movl	%eax, -20(%rbp)
Ltmp771:
	.loc	51 78 13
	movl	%eax, (%rcx)
	.loc	51 79 13
	movl	%eax, -36(%rbp)
	movl	$1, -40(%rbp)
Ltmp772:
	.loc	51 74 9
	jmp	LBB99_5
LBB99_4:
	.loc	51 75 13
	movl	$0, -40(%rbp)
LBB99_5:
	.loc	51 81 6
	movl	-40(%rbp), %eax
	movl	-36(%rbp), %ecx
Ltmp773:
	.loc	50 162 46
	movl	%ecx, -140(%rbp)
	movl	%eax, -144(%rbp)
	.loc	50 162 16 is_stmt 0
	movl	-144(%rbp), %eax
	cmpq	$1, %rax
	jne	LBB99_7
	.loc	50 0 16
	movq	-184(%rbp), %rdi
	.loc	50 162 21
	movl	-140(%rbp), %esi
	movl	%esi, -44(%rbp)
	.loc	50 165 17 is_stmt 1
	movq	%rdi, %rdx
	addq	$280, %rdx
	.loc	50 163 13
	callq	__ZN107_$LT$sigalign..wrapper..aligner..mode..SwitchableMode$u20$as$u20$sigalign..aligner..mode..AlignmentMode$GT$14allocate_space17h601bf6ef3073f624E
Ltmp774:
LBB99_7:
	.loc	50 0 13 is_stmt 0
	movq	-184(%rbp), %rsi
	movq	-216(%rbp), %r9
	movq	-208(%rbp), %r8
	movq	-200(%rbp), %rcx
	movq	-192(%rbp), %rdx
	.loc	50 173 13 is_stmt 1
	movq	%rsi, %rax
	addq	$280, %rax
	.loc	50 169 42
	leaq	-136(%rbp), %rdi
	movq	%rax, (%rsp)
	callq	__ZN107_$LT$sigalign..wrapper..aligner..mode..SwitchableMode$u20$as$u20$sigalign..aligner..mode..AlignmentMode$GT$13run_algorithm17h217e841e0f9da322E
	movq	-184(%rbp), %rsi
	movq	-176(%rbp), %rdi
Ltmp775:
	.loc	50 176 9
	addq	$280, %rsi
	.loc	50 176 55 is_stmt 0
	movq	-136(%rbp), %rax
	movq	%rax, -112(%rbp)
	movq	-128(%rbp), %rax
	movq	%rax, -104(%rbp)
	movq	-120(%rbp), %rax
	movq	%rax, -96(%rbp)
	.loc	50 176 9
	leaq	-112(%rbp), %rdx
	callq	__ZN8sigalign7aligner9regulator18AlignmentRegulator30result_of_uncompressed_penalty17h4600618f4e1ddeadE
	movq	-168(%rbp), %rax
Ltmp776:
	.loc	50 177 6 epilogue_begin is_stmt 1
	addq	$240, %rsp
	popq	%rbp
	retq
Ltmp777:
Lfunc_end99:
	.cfi_endproc

	.p2align	4, 0x90
__ZN8sigalign9algorithm11semi_global31semi_global_alignment_algorithm17h9ab633385e516da0E:
Lfunc_begin100:
	.file	52 "/Users/khun/Dev/Repos/sigalign" "sigalign/src/algorithm/semi_global/mod.rs"
	.loc	52 29 0
	.cfi_startproc
	.cfi_personality 155, _rust_eh_personality
	.cfi_lsda 16, Lexception22
	pushq	%rbp
	.cfi_def_cfa_offset 16
	.cfi_offset %rbp, -16
	movq	%rsp, %rbp
	.cfi_def_cfa_register %rbp
	pushq	%r14
	pushq	%rbx
	subq	$560, %rsp
	.cfi_offset %rbx, -32
	.cfi_offset %r14, -24
	movq	%r8, -576(%rbp)
	movq	%rcx, %rax
	movq	-576(%rbp), %rcx
	movq	%rax, -568(%rbp)
	movq	%rdx, %rax
	movq	-568(%rbp), %rdx
	movq	%rax, -560(%rbp)
	movq	%rsi, -552(%rbp)
	movq	%rdi, -544(%rbp)
	movq	%rdi, -536(%rbp)
	movq	64(%rbp), %rdi
	movq	%rdi, -528(%rbp)
	movq	56(%rbp), %rdi
	movq	%rdi, -520(%rbp)
	movq	48(%rbp), %rdi
	movq	%rdi, -512(%rbp)
	movq	40(%rbp), %rdi
	movq	%rdi, -504(%rbp)
	movq	32(%rbp), %rdi
	movq	%rdi, -496(%rbp)
	movq	24(%rbp), %rdi
	movq	%rdi, -488(%rbp)
	movq	16(%rbp), %rdi
	movq	%rdi, -480(%rbp)
	movl	%r9d, -452(%rbp)
	movq	%rsi, -64(%rbp)
	movq	%rax, -56(%rbp)
	movq	%rdx, -48(%rbp)
	movq	%rcx, -40(%rbp)
Ltmp790:
	.loc	52 43 99 prologue_end
	movl	-452(%rbp), %r8d
	leaq	-448(%rbp), %rdi
	movq	%rdi, -472(%rbp)
	.loc	52 43 32 is_stmt 0
	callq	__ZN8sigalign9algorithm6anchor11AnchorTable19new_by_target_index17he8dda710e0e0d468E
	movq	-472(%rbp), %rdi
Ltmp778:
Ltmp791:
	.loc	52 44 64 is_stmt 1
	callq	__ZN89_$LT$ahash..hash_map..AHashMap$LT$K$C$V$C$S$GT$$u20$as$u20$core..ops..deref..DerefMut$GT$9deref_mut17h87ad8fef860c4796E
Ltmp779:
	movq	%rax, -464(%rbp)
	jmp	LBB100_3
Ltmp792:
LBB100_1:
Ltmp787:
	.loc	52 0 64 is_stmt 0
	leaq	-448(%rbp), %rdi
	.loc	52 72 1 is_stmt 1
	callq	__ZN4core3ptr100drop_in_place$LT$ahash..hash_map..AHashMap$LT$u32$C$sigalign..algorithm..anchor..AnchorTable$GT$$GT$17h87b68c32bfce6610E
Ltmp788:
	jmp	LBB100_8
LBB100_2:
Ltmp786:
	.loc	52 0 1 is_stmt 0
	movq	%rax, %rcx
	movl	%edx, %eax
	movq	%rcx, -32(%rbp)
	movl	%eax, -24(%rbp)
	jmp	LBB100_1
LBB100_3:
Ltmp780:
	movq	-464(%rbp), %rsi
	leaq	-224(%rbp), %rdi
Ltmp793:
	.loc	52 44 64 is_stmt 1
	callq	__ZN3std11collections4hash3map24HashMap$LT$K$C$V$C$S$GT$8iter_mut17h379ea586172de0bcE
Ltmp781:
	jmp	LBB100_4
LBB100_4:
	.loc	52 0 64 is_stmt 0
	movq	-528(%rbp), %rax
	movq	-520(%rbp), %rcx
	movq	-512(%rbp), %rdx
	movq	-504(%rbp), %rsi
	movq	-496(%rbp), %rdi
	movq	-488(%rbp), %r8
	movq	-480(%rbp), %r9
	movq	-576(%rbp), %r10
	movq	-568(%rbp), %r11
	movq	-560(%rbp), %rbx
	movq	-552(%rbp), %r14
	.loc	52 44 103
	movq	%r14, -184(%rbp)
	movq	%rbx, -176(%rbp)
	leaq	-452(%rbp), %rbx
	movq	%rbx, -168(%rbp)
	movq	%r11, -160(%rbp)
	movq	%r10, -152(%rbp)
	movq	%r9, -144(%rbp)
	movq	%r8, -136(%rbp)
	movq	%rdi, -128(%rbp)
	movq	%rsi, -120(%rbp)
	movq	%rdx, -112(%rbp)
	movq	%rcx, -104(%rbp)
	movq	%rax, -96(%rbp)
Ltmp782:
	leaq	-360(%rbp), %rdi
	leaq	-224(%rbp), %rsi
	leaq	-184(%rbp), %rdx
	.loc	52 44 64
	callq	__ZN4core4iter6traits8iterator8Iterator10filter_map17h594e48cde47b7b05E
Ltmp783:
	jmp	LBB100_5
LBB100_5:
Ltmp784:
	.loc	52 0 64
	leaq	-384(%rbp), %rdi
	leaq	-360(%rbp), %rsi
	.loc	52 44 64
	callq	__ZN4core4iter6traits8iterator8Iterator7collect17h87ea7e5b8f055474E
Ltmp785:
	jmp	LBB100_6
LBB100_6:
	.loc	52 0 64
	movq	-544(%rbp), %rax
Ltmp794:
	.loc	52 71 21 is_stmt 1
	movq	-384(%rbp), %rcx
	movq	%rcx, -88(%rbp)
	movq	-376(%rbp), %rcx
	movq	%rcx, -80(%rbp)
	movq	-368(%rbp), %rcx
	movq	%rcx, -72(%rbp)
	.loc	52 71 5 is_stmt 0
	movq	-88(%rbp), %rcx
	movq	%rcx, (%rax)
	movq	-80(%rbp), %rcx
	movq	%rcx, 8(%rax)
	movq	-72(%rbp), %rcx
	movq	%rcx, 16(%rax)
Ltmp795:
	.loc	52 72 1 is_stmt 1
	leaq	-448(%rbp), %rdi
	callq	__ZN4core3ptr100drop_in_place$LT$ahash..hash_map..AHashMap$LT$u32$C$sigalign..algorithm..anchor..AnchorTable$GT$$GT$17h87b68c32bfce6610E
	movq	-536(%rbp), %rax
	.loc	52 72 2 epilogue_begin is_stmt 0
	addq	$560, %rsp
	popq	%rbx
	popq	%r14
	popq	%rbp
	retq
LBB100_7:
Ltmp789:
	.loc	52 29 1 is_stmt 1
	callq	__ZN4core9panicking19panic_cannot_unwind17h0477e80cce5de375E
LBB100_8:
	movq	-32(%rbp), %rdi
	callq	__Unwind_Resume
Ltmp796:
Lfunc_end100:
	.cfi_endproc
	.section	__TEXT,__gcc_except_tab
	.p2align	2, 0x0
GCC_except_table100:
Lexception22:
	.byte	255
	.byte	155
	.uleb128 Lttbase9-Lttbaseref9
Lttbaseref9:
	.byte	1
	.uleb128 Lcst_end22-Lcst_begin22
Lcst_begin22:
	.uleb128 Lfunc_begin100-Lfunc_begin100
	.uleb128 Ltmp778-Lfunc_begin100
	.byte	0
	.byte	0
	.uleb128 Ltmp778-Lfunc_begin100
	.uleb128 Ltmp779-Ltmp778
	.uleb128 Ltmp786-Lfunc_begin100
	.byte	0
	.uleb128 Ltmp787-Lfunc_begin100
	.uleb128 Ltmp788-Ltmp787
	.uleb128 Ltmp789-Lfunc_begin100
	.byte	1
	.uleb128 Ltmp780-Lfunc_begin100
	.uleb128 Ltmp785-Ltmp780
	.uleb128 Ltmp786-Lfunc_begin100
	.byte	0
	.uleb128 Ltmp785-Lfunc_begin100
	.uleb128 Lfunc_end100-Ltmp785
	.byte	0
	.byte	0
Lcst_end22:
	.byte	127
	.byte	0
	.p2align	2, 0x0
Lttbase9:
	.byte	0
	.p2align	2, 0x0

	.section	__TEXT,__text,regular,pure_instructions
	.p2align	4, 0x90
__ZN8sigalign9algorithm11semi_global31semi_global_alignment_algorithm28_$u7b$$u7b$closure$u7d$$u7d$17h190d1b955eb2f494E:
Lfunc_begin101:
	.loc	52 44 0
	.cfi_startproc
	.cfi_personality 155, _rust_eh_personality
	.cfi_lsda 16, Lexception23
	pushq	%rbp
	.cfi_def_cfa_offset 16
	.cfi_offset %rbp, -16
	movq	%rsp, %rbp
	.cfi_def_cfa_register %rbp
	pushq	%r15
	pushq	%r14
	pushq	%r13
	pushq	%r12
	pushq	%rbx
	subq	$296, %rsp
	.cfi_offset %rbx, -56
	.cfi_offset %r12, -48
	.cfi_offset %r13, -40
	.cfi_offset %r14, -32
	.cfi_offset %r15, -24
	movq	%rcx, -240(%rbp)
	movq	%rdx, -264(%rbp)
	movq	%rsi, %rax
	movq	%rax, -232(%rbp)
	movq	%rdi, -256(%rbp)
	movq	%rdi, -248(%rbp)
	movq	%rax, -112(%rbp)
	movq	%rdx, -104(%rbp)
	movq	%rcx, -96(%rbp)
Ltmp803:
	.loc	52 44 105 prologue_end
	movb	$0, -113(%rbp)
	movq	%rdx, -88(%rbp)
	.loc	52 44 119 is_stmt 0
	movq	%rcx, -80(%rbp)
Ltmp804:
	.loc	52 45 47 is_stmt 1
	movl	(%rdx), %esi
	.loc	52 45 9 is_stmt 0
	movq	(%rax), %rdi
	.loc	52 45 62
	movq	8(%rax), %rdx
	.loc	52 45 9
	callq	__ZN8sigalign9reference14pattern_search111_$LT$impl$u20$sigalign..core..BufferedPatternSearch$u20$for$u20$sigalign..reference..Reference$LT$I$C$S$GT$$GT$11fill_buffer17ha099bfb2fb48c55dE
	movq	-232(%rbp), %rsi
	.loc	52 46 22 is_stmt 1
	movq	8(%rsi), %rdi
	callq	__ZN115_$LT$sigalign..reference..sequence_storage..in_memory..InMemoryBuffer$u20$as$u20$sigalign..core..SequenceBuffer$GT$17buffered_sequence17h20cf70dfbaa83ba0E
	movq	-240(%rbp), %rsi
	movq	%rax, %rcx
	movq	-232(%rbp), %rax
	movq	%rdx, %r8
	movq	%rcx, -72(%rbp)
	movq	%r8, -64(%rbp)
Ltmp805:
	.loc	52 49 13
	movq	16(%rax), %rdx
	.loc	52 51 13
	movq	24(%rax), %r9
	.loc	52 49 13
	movl	(%rdx), %edx
	.loc	52 51 13
	movq	32(%rax), %rdi
	.loc	52 52 13
	movq	40(%rax), %r10
	.loc	52 53 13
	movq	48(%rax), %r11
	.loc	52 54 13
	movq	56(%rax), %rbx
	.loc	52 55 13
	movq	64(%rax), %r14
	.loc	52 56 13
	movq	72(%rax), %r15
	.loc	52 57 13
	movq	80(%rax), %r12
	.loc	52 58 13
	movq	88(%rax), %r13
	.loc	52 47 40
	movb	$1, -113(%rbp)
	movq	%rsp, %rax
	movq	%rax, -224(%rbp)
	movq	%r13, 56(%rax)
	movq	%r12, 48(%rax)
	movq	%r15, 40(%rax)
	movq	%r14, 32(%rax)
	movq	%rbx, 24(%rax)
	movq	%r11, 16(%rax)
	movq	%r10, 8(%rax)
	movq	%rdi, (%rax)
	leaq	-200(%rbp), %rdi
	movq	%rdi, -216(%rbp)
	callq	__ZN8sigalign9algorithm11semi_global37semi_global_alignment_query_to_target17h54884bdd44ca8a3dE
	movq	-216(%rbp), %rdi
Ltmp797:
Ltmp806:
	.loc	52 61 12
	callq	__ZN5alloc3vec16Vec$LT$T$C$A$GT$3len17hd6162b154ebf3afaE
Ltmp798:
	movq	%rax, -208(%rbp)
	jmp	LBB101_3
Ltmp807:
LBB101_1:
Ltmp800:
	.loc	52 0 12 is_stmt 0
	leaq	-200(%rbp), %rdi
	.loc	52 69 5 is_stmt 1
	callq	__ZN4core3ptr84drop_in_place$LT$alloc..vec..Vec$LT$sigalign..results..AnchorAlignmentResult$GT$$GT$17h436788dfcb693588E
Ltmp801:
	jmp	LBB101_10
LBB101_2:
Ltmp799:
	.loc	52 0 5 is_stmt 0
	movq	%rax, %rcx
	movl	%edx, %eax
	movq	%rcx, -56(%rbp)
	movl	%eax, -48(%rbp)
	jmp	LBB101_1
LBB101_3:
	movq	-208(%rbp), %rax
Ltmp808:
	.loc	52 61 12 is_stmt 1
	cmpq	$0, %rax
	jne	LBB101_5
	.loc	52 0 12 is_stmt 0
	movq	-256(%rbp), %rax
	.loc	52 62 13 is_stmt 1
	movq	$0, (%rax)
	.loc	52 61 9
	jmp	LBB101_6
LBB101_5:
	.loc	52 0 9 is_stmt 0
	movq	-256(%rbp), %rax
	movq	-264(%rbp), %rcx
	.loc	52 65 24 is_stmt 1
	movl	(%rcx), %ecx
	.loc	52 66 29
	movb	$0, -113(%rbp)
	movq	-200(%rbp), %rdx
	movq	%rdx, -144(%rbp)
	movq	-192(%rbp), %rdx
	movq	%rdx, -136(%rbp)
	movq	-184(%rbp), %rdx
	movq	%rdx, -128(%rbp)
	.loc	52 64 18
	movl	%ecx, -152(%rbp)
	movq	-144(%rbp), %rcx
	movq	%rcx, -176(%rbp)
	movq	-136(%rbp), %rcx
	movq	%rcx, -168(%rbp)
	movq	-128(%rbp), %rcx
	movq	%rcx, -160(%rbp)
	.loc	52 64 13 is_stmt 0
	movq	-176(%rbp), %rcx
	movq	%rcx, (%rax)
	movq	-168(%rbp), %rcx
	movq	%rcx, 8(%rax)
	movq	-160(%rbp), %rcx
	movq	%rcx, 16(%rax)
	movq	-152(%rbp), %rcx
	movq	%rcx, 24(%rax)
Ltmp809:
LBB101_6:
	.loc	52 69 5 is_stmt 1
	testb	$1, -113(%rbp)
	jne	LBB101_8
LBB101_7:
	.loc	52 0 5 is_stmt 0
	movq	-248(%rbp), %rax
	.loc	52 69 5
	movb	$0, -113(%rbp)
Ltmp810:
	.loc	52 69 6 epilogue_begin
	addq	$296, %rsp
	popq	%rbx
	popq	%r12
	popq	%r13
	popq	%r14
	popq	%r15
	popq	%rbp
	retq
LBB101_8:
Ltmp811:
	.loc	52 69 5
	leaq	-200(%rbp), %rdi
	callq	__ZN4core3ptr84drop_in_place$LT$alloc..vec..Vec$LT$sigalign..results..AnchorAlignmentResult$GT$$GT$17h436788dfcb693588E
	jmp	LBB101_7
Ltmp812:
LBB101_9:
Ltmp802:
	.loc	52 44 103 is_stmt 1
	callq	__ZN4core9panicking19panic_cannot_unwind17h0477e80cce5de375E
LBB101_10:
	movq	-56(%rbp), %rdi
	callq	__Unwind_Resume
Ltmp813:
Lfunc_end101:
	.cfi_endproc
	.section	__TEXT,__gcc_except_tab
	.p2align	2, 0x0
GCC_except_table101:
Lexception23:
	.byte	255
	.byte	155
	.uleb128 Lttbase10-Lttbaseref10
Lttbaseref10:
	.byte	1
	.uleb128 Lcst_end23-Lcst_begin23
Lcst_begin23:
	.uleb128 Lfunc_begin101-Lfunc_begin101
	.uleb128 Ltmp797-Lfunc_begin101
	.byte	0
	.byte	0
	.uleb128 Ltmp797-Lfunc_begin101
	.uleb128 Ltmp798-Ltmp797
	.uleb128 Ltmp799-Lfunc_begin101
	.byte	0
	.uleb128 Ltmp800-Lfunc_begin101
	.uleb128 Ltmp801-Ltmp800
	.uleb128 Ltmp802-Lfunc_begin101
	.byte	1
	.uleb128 Ltmp801-Lfunc_begin101
	.uleb128 Lfunc_end101-Ltmp801
	.byte	0
	.byte	0
Lcst_end23:
	.byte	127
	.byte	0
	.p2align	2, 0x0
Lttbase10:
	.byte	0
	.p2align	2, 0x0

	.section	__TEXT,__text,regular,pure_instructions
	.p2align	4, 0x90
__ZN8sigalign9algorithm5local25local_alignment_algorithm17hc5220d0b696843ceE:
Lfunc_begin102:
	.file	53 "/Users/khun/Dev/Repos/sigalign" "sigalign/src/algorithm/local/mod.rs"
	.loc	53 31 0
	.cfi_startproc
	.cfi_personality 155, _rust_eh_personality
	.cfi_lsda 16, Lexception24
	pushq	%rbp
	.cfi_def_cfa_offset 16
	.cfi_offset %rbp, -16
	movq	%rsp, %rbp
	.cfi_def_cfa_register %rbp
	pushq	%rbx
	subq	$584, %rsp
	.cfi_offset %rbx, -24
	movq	%rdx, -592(%rbp)
	movq	%rsi, -584(%rbp)
	movq	%rdi, -576(%rbp)
	movq	%rdi, -568(%rbp)
	movq	88(%rbp), %rax
	movq	%rax, -560(%rbp)
	movq	80(%rbp), %rax
	movq	%rax, -552(%rbp)
	movq	72(%rbp), %rax
	movq	%rax, -544(%rbp)
	movq	64(%rbp), %rax
	movq	%rax, -536(%rbp)
	movq	56(%rbp), %rax
	movq	%rax, -528(%rbp)
	movq	48(%rbp), %rax
	movq	%rax, -520(%rbp)
	movq	40(%rbp), %rax
	movq	%rax, -512(%rbp)
	movq	32(%rbp), %rax
	movq	%rax, -504(%rbp)
	movq	24(%rbp), %rax
	movq	16(%rbp), %rax
	movq	%rcx, -480(%rbp)
	movq	%r8, -472(%rbp)
	movl	%r9d, -460(%rbp)
	movq	%rsi, -40(%rbp)
	movq	%rdx, -32(%rbp)
Ltmp826:
	.loc	53 48 92 prologue_end
	movq	-480(%rbp), %rdx
	movq	-472(%rbp), %rcx
	.loc	53 48 99 is_stmt 0
	movl	-460(%rbp), %r8d
	leaq	-456(%rbp), %rdi
	movq	%rdi, -496(%rbp)
	.loc	53 48 32
	callq	__ZN8sigalign9algorithm6anchor11AnchorTable19new_by_target_index17he8dda710e0e0d468E
	movq	-496(%rbp), %rdi
Ltmp814:
Ltmp827:
	.loc	53 50 64 is_stmt 1
	callq	__ZN89_$LT$ahash..hash_map..AHashMap$LT$K$C$V$C$S$GT$$u20$as$u20$core..ops..deref..DerefMut$GT$9deref_mut17h87ad8fef860c4796E
Ltmp815:
	movq	%rax, -488(%rbp)
	jmp	LBB102_3
Ltmp828:
LBB102_1:
Ltmp823:
	.loc	53 0 64 is_stmt 0
	leaq	-456(%rbp), %rdi
	.loc	53 81 1 is_stmt 1
	callq	__ZN4core3ptr100drop_in_place$LT$ahash..hash_map..AHashMap$LT$u32$C$sigalign..algorithm..anchor..AnchorTable$GT$$GT$17h87b68c32bfce6610E
Ltmp824:
	jmp	LBB102_8
LBB102_2:
Ltmp822:
	.loc	53 0 1 is_stmt 0
	movq	%rax, %rcx
	movl	%edx, %eax
	movq	%rcx, -24(%rbp)
	movl	%eax, -16(%rbp)
	jmp	LBB102_1
LBB102_3:
Ltmp816:
	movq	-488(%rbp), %rsi
	leaq	-216(%rbp), %rdi
Ltmp829:
	.loc	53 50 64 is_stmt 1
	callq	__ZN3std11collections4hash3map24HashMap$LT$K$C$V$C$S$GT$8iter_mut17h379ea586172de0bcE
Ltmp817:
	jmp	LBB102_4
LBB102_4:
	.loc	53 0 64 is_stmt 0
	movq	-560(%rbp), %rax
	movq	-552(%rbp), %rcx
	movq	-544(%rbp), %rdx
	movq	-536(%rbp), %rsi
	movq	-528(%rbp), %rdi
	movq	-520(%rbp), %r8
	movq	-512(%rbp), %r9
	movq	-504(%rbp), %r10
	movq	-592(%rbp), %r11
	movq	-584(%rbp), %rbx
	.loc	53 50 103
	movq	%rbx, -176(%rbp)
	movq	%r11, -168(%rbp)
	leaq	-460(%rbp), %r11
	movq	%r11, -160(%rbp)
	leaq	-480(%rbp), %r11
	movq	%r11, -152(%rbp)
	leaq	16(%rbp), %r11
	movq	%r11, -144(%rbp)
	leaq	24(%rbp), %r11
	movq	%r11, -136(%rbp)
	movq	%r10, -128(%rbp)
	movq	%r9, -120(%rbp)
	movq	%r8, -112(%rbp)
	movq	%rdi, -104(%rbp)
	movq	%rsi, -96(%rbp)
	movq	%rdx, -88(%rbp)
	movq	%rcx, -80(%rbp)
	movq	%rax, -72(%rbp)
Ltmp818:
	leaq	-368(%rbp), %rdi
	leaq	-216(%rbp), %rsi
	leaq	-176(%rbp), %rdx
	.loc	53 50 64
	callq	__ZN4core4iter6traits8iterator8Iterator10filter_map17h82fadabc435818ffE
Ltmp819:
	jmp	LBB102_5
LBB102_5:
Ltmp820:
	.loc	53 0 64
	leaq	-392(%rbp), %rdi
	leaq	-368(%rbp), %rsi
	.loc	53 50 64
	callq	__ZN4core4iter6traits8iterator8Iterator7collect17h6877e8068010f103E
Ltmp821:
	jmp	LBB102_6
LBB102_6:
	.loc	53 0 64
	movq	-576(%rbp), %rax
Ltmp830:
	.loc	53 80 21 is_stmt 1
	movq	-392(%rbp), %rcx
	movq	%rcx, -64(%rbp)
	movq	-384(%rbp), %rcx
	movq	%rcx, -56(%rbp)
	movq	-376(%rbp), %rcx
	movq	%rcx, -48(%rbp)
	.loc	53 80 5 is_stmt 0
	movq	-64(%rbp), %rcx
	movq	%rcx, (%rax)
	movq	-56(%rbp), %rcx
	movq	%rcx, 8(%rax)
	movq	-48(%rbp), %rcx
	movq	%rcx, 16(%rax)
Ltmp831:
	.loc	53 81 1 is_stmt 1
	leaq	-456(%rbp), %rdi
	callq	__ZN4core3ptr100drop_in_place$LT$ahash..hash_map..AHashMap$LT$u32$C$sigalign..algorithm..anchor..AnchorTable$GT$$GT$17h87b68c32bfce6610E
	movq	-568(%rbp), %rax
	.loc	53 81 2 epilogue_begin is_stmt 0
	addq	$584, %rsp
	popq	%rbx
	popq	%rbp
	retq
LBB102_7:
Ltmp825:
	.loc	53 31 1 is_stmt 1
	callq	__ZN4core9panicking19panic_cannot_unwind17h0477e80cce5de375E
LBB102_8:
	movq	-24(%rbp), %rdi
	callq	__Unwind_Resume
Ltmp832:
Lfunc_end102:
	.cfi_endproc
	.section	__TEXT,__gcc_except_tab
	.p2align	2, 0x0
GCC_except_table102:
Lexception24:
	.byte	255
	.byte	155
	.uleb128 Lttbase11-Lttbaseref11
Lttbaseref11:
	.byte	1
	.uleb128 Lcst_end24-Lcst_begin24
Lcst_begin24:
	.uleb128 Lfunc_begin102-Lfunc_begin102
	.uleb128 Ltmp814-Lfunc_begin102
	.byte	0
	.byte	0
	.uleb128 Ltmp814-Lfunc_begin102
	.uleb128 Ltmp815-Ltmp814
	.uleb128 Ltmp822-Lfunc_begin102
	.byte	0
	.uleb128 Ltmp823-Lfunc_begin102
	.uleb128 Ltmp824-Ltmp823
	.uleb128 Ltmp825-Lfunc_begin102
	.byte	1
	.uleb128 Ltmp816-Lfunc_begin102
	.uleb128 Ltmp821-Ltmp816
	.uleb128 Ltmp822-Lfunc_begin102
	.byte	0
	.uleb128 Ltmp821-Lfunc_begin102
	.uleb128 Lfunc_end102-Ltmp821
	.byte	0
	.byte	0
Lcst_end24:
	.byte	127
	.byte	0
	.p2align	2, 0x0
Lttbase11:
	.byte	0
	.p2align	2, 0x0

	.section	__TEXT,__text,regular,pure_instructions
	.p2align	4, 0x90
__ZN8sigalign9algorithm5local25local_alignment_algorithm28_$u7b$$u7b$closure$u7d$$u7d$17hadce4d4901466ed2E:
Lfunc_begin103:
	.loc	53 50 0
	.cfi_startproc
	.cfi_personality 155, _rust_eh_personality
	.cfi_lsda 16, Lexception25
	pushq	%rbp
	.cfi_def_cfa_offset 16
	.cfi_offset %rbp, -16
	movq	%rsp, %rbp
	.cfi_def_cfa_register %rbp
	pushq	%r15
	pushq	%r14
	pushq	%r13
	pushq	%r12
	pushq	%rbx
	subq	$344, %rsp
	.cfi_offset %rbx, -56
	.cfi_offset %r12, -48
	.cfi_offset %r13, -40
	.cfi_offset %r14, -32
	.cfi_offset %r15, -24
	movq	%rcx, -264(%rbp)
	movq	%rdx, -288(%rbp)
	movq	%rsi, %rax
	movq	%rax, -256(%rbp)
	movq	%rdi, -280(%rbp)
	movq	%rdi, -272(%rbp)
	movq	%rax, -112(%rbp)
	movq	%rdx, -104(%rbp)
	movq	%rcx, -96(%rbp)
Ltmp839:
	.loc	53 50 105 prologue_end
	movb	$0, -113(%rbp)
	movq	%rdx, -88(%rbp)
	.loc	53 50 119 is_stmt 0
	movq	%rcx, -80(%rbp)
Ltmp840:
	.loc	53 51 47 is_stmt 1
	movl	(%rdx), %esi
	.loc	53 51 9 is_stmt 0
	movq	(%rax), %rdi
	.loc	53 51 62
	movq	8(%rax), %rdx
	.loc	53 51 9
	callq	__ZN8sigalign9reference14pattern_search111_$LT$impl$u20$sigalign..core..BufferedPatternSearch$u20$for$u20$sigalign..reference..Reference$LT$I$C$S$GT$$GT$11fill_buffer17ha099bfb2fb48c55dE
	movq	-256(%rbp), %rsi
	.loc	53 52 22 is_stmt 1
	movq	8(%rsi), %rdi
	callq	__ZN115_$LT$sigalign..reference..sequence_storage..in_memory..InMemoryBuffer$u20$as$u20$sigalign..core..SequenceBuffer$GT$17buffered_sequence17h20cf70dfbaa83ba0E
	movq	-264(%rbp), %rsi
	movq	%rax, %rcx
	movq	-256(%rbp), %rax
	movq	%rcx, -224(%rbp)
	movq	%rdx, %r8
	movq	%rcx, -72(%rbp)
	movq	%r8, -64(%rbp)
Ltmp841:
	.loc	53 55 13
	movq	16(%rax), %rdx
	.loc	53 57 13
	movq	24(%rax), %rcx
	.loc	53 55 13
	movl	(%rdx), %edx
	.loc	53 57 13
	movq	(%rcx), %r9
	movq	8(%rcx), %rdi
	.loc	53 58 13
	movq	32(%rax), %rcx
	movq	(%rcx), %r10
	.loc	53 59 13
	movq	40(%rax), %rcx
	movq	(%rcx), %r11
	.loc	53 60 13
	movq	48(%rax), %rbx
	.loc	53 61 13
	movq	56(%rax), %r14
	.loc	53 62 13
	movq	64(%rax), %r15
	.loc	53 63 13
	movq	72(%rax), %r12
	.loc	53 64 13
	movq	80(%rax), %r13
	.loc	53 65 13
	movq	88(%rax), %rcx
	movq	%rcx, -232(%rbp)
	.loc	53 66 13
	movq	96(%rax), %rcx
	movq	%rcx, -240(%rbp)
	.loc	53 67 13
	movq	104(%rax), %rcx
	.loc	53 53 40
	movb	$1, -113(%rbp)
	movq	%rsp, %rax
	movq	%rax, -248(%rbp)
	movq	%rcx, 80(%rax)
	movq	-240(%rbp), %rcx
	movq	%rcx, 72(%rax)
	movq	-232(%rbp), %rcx
	movq	%rcx, 64(%rax)
	movq	-224(%rbp), %rcx
	movq	%r13, 56(%rax)
	movq	%r12, 48(%rax)
	movq	%r15, 40(%rax)
	movq	%r14, 32(%rax)
	movq	%rbx, 24(%rax)
	movq	%r11, 16(%rax)
	movq	%r10, 8(%rax)
	movq	%rdi, (%rax)
	leaq	-200(%rbp), %rdi
	movq	%rdi, -216(%rbp)
	callq	_local_alignment_query_to_target
	movq	-216(%rbp), %rdi
Ltmp833:
Ltmp842:
	.loc	53 70 12
	callq	__ZN5alloc3vec16Vec$LT$T$C$A$GT$3len17hd6162b154ebf3afaE
Ltmp834:
	movq	%rax, -208(%rbp)
	jmp	LBB103_3
Ltmp843:
LBB103_1:
Ltmp836:
	.loc	53 0 12 is_stmt 0
	leaq	-200(%rbp), %rdi
	.loc	53 78 5 is_stmt 1
	callq	__ZN4core3ptr84drop_in_place$LT$alloc..vec..Vec$LT$sigalign..results..AnchorAlignmentResult$GT$$GT$17h436788dfcb693588E
Ltmp837:
	jmp	LBB103_10
LBB103_2:
Ltmp835:
	.loc	53 0 5 is_stmt 0
	movq	%rax, %rcx
	movl	%edx, %eax
	movq	%rcx, -56(%rbp)
	movl	%eax, -48(%rbp)
	jmp	LBB103_1
LBB103_3:
	movq	-208(%rbp), %rax
Ltmp844:
	.loc	53 70 12 is_stmt 1
	cmpq	$0, %rax
	jne	LBB103_5
	.loc	53 0 12 is_stmt 0
	movq	-280(%rbp), %rax
	.loc	53 71 13 is_stmt 1
	movq	$0, (%rax)
	.loc	53 70 9
	jmp	LBB103_6
LBB103_5:
	.loc	53 0 9 is_stmt 0
	movq	-280(%rbp), %rax
	movq	-288(%rbp), %rcx
	.loc	53 74 24 is_stmt 1
	movl	(%rcx), %ecx
	.loc	53 75 29
	movb	$0, -113(%rbp)
	movq	-200(%rbp), %rdx
	movq	%rdx, -144(%rbp)
	movq	-192(%rbp), %rdx
	movq	%rdx, -136(%rbp)
	movq	-184(%rbp), %rdx
	movq	%rdx, -128(%rbp)
	.loc	53 73 18
	movl	%ecx, -152(%rbp)
	movq	-144(%rbp), %rcx
	movq	%rcx, -176(%rbp)
	movq	-136(%rbp), %rcx
	movq	%rcx, -168(%rbp)
	movq	-128(%rbp), %rcx
	movq	%rcx, -160(%rbp)
	.loc	53 73 13 is_stmt 0
	movq	-176(%rbp), %rcx
	movq	%rcx, (%rax)
	movq	-168(%rbp), %rcx
	movq	%rcx, 8(%rax)
	movq	-160(%rbp), %rcx
	movq	%rcx, 16(%rax)
	movq	-152(%rbp), %rcx
	movq	%rcx, 24(%rax)
Ltmp845:
LBB103_6:
	.loc	53 78 5 is_stmt 1
	testb	$1, -113(%rbp)
	jne	LBB103_8
LBB103_7:
	.loc	53 0 5 is_stmt 0
	movq	-272(%rbp), %rax
	.loc	53 78 5
	movb	$0, -113(%rbp)
Ltmp846:
	.loc	53 78 6 epilogue_begin
	addq	$344, %rsp
	popq	%rbx
	popq	%r12
	popq	%r13
	popq	%r14
	popq	%r15
	popq	%rbp
	retq
LBB103_8:
Ltmp847:
	.loc	53 78 5
	leaq	-200(%rbp), %rdi
	callq	__ZN4core3ptr84drop_in_place$LT$alloc..vec..Vec$LT$sigalign..results..AnchorAlignmentResult$GT$$GT$17h436788dfcb693588E
	jmp	LBB103_7
Ltmp848:
LBB103_9:
Ltmp838:
	.loc	53 50 103 is_stmt 1
	callq	__ZN4core9panicking19panic_cannot_unwind17h0477e80cce5de375E
LBB103_10:
	movq	-56(%rbp), %rdi
	callq	__Unwind_Resume
Ltmp849:
Lfunc_end103:
	.cfi_endproc
	.section	__TEXT,__gcc_except_tab
	.p2align	2, 0x0
GCC_except_table103:
Lexception25:
	.byte	255
	.byte	155
	.uleb128 Lttbase12-Lttbaseref12
Lttbaseref12:
	.byte	1
	.uleb128 Lcst_end25-Lcst_begin25
Lcst_begin25:
	.uleb128 Lfunc_begin103-Lfunc_begin103
	.uleb128 Ltmp833-Lfunc_begin103
	.byte	0
	.byte	0
	.uleb128 Ltmp833-Lfunc_begin103
	.uleb128 Ltmp834-Ltmp833
	.uleb128 Ltmp835-Lfunc_begin103
	.byte	0
	.uleb128 Ltmp836-Lfunc_begin103
	.uleb128 Ltmp837-Ltmp836
	.uleb128 Ltmp838-Lfunc_begin103
	.byte	1
	.uleb128 Ltmp837-Lfunc_begin103
	.uleb128 Lfunc_end103-Ltmp837
	.byte	0
	.byte	0
Lcst_end25:
	.byte	127
	.byte	0
	.p2align	2, 0x0
Lttbase12:
	.byte	0
	.p2align	2, 0x0

	.section	__TEXT,__text,regular,pure_instructions
	.p2align	4, 0x90
__ZN8sigalign9algorithm6anchor11AnchorTable19new_by_target_index17he8dda710e0e0d468E:
Lfunc_begin104:
	.file	54 "/Users/khun/Dev/Repos/sigalign" "sigalign/src/algorithm/anchor/mod.rs"
	.loc	54 33 0
	.cfi_startproc
	.cfi_personality 155, _rust_eh_personality
	.cfi_lsda 16, Lexception26
	pushq	%rbp
	.cfi_def_cfa_offset 16
	.cfi_offset %rbp, -16
	movq	%rsp, %rbp
	.cfi_def_cfa_register %rbp
	subq	$304, %rsp
	movq	%rcx, -288(%rbp)
	movq	%rdx, -280(%rbp)
	movq	%rsi, -272(%rbp)
	movq	%rdi, -264(%rbp)
	movq	%rdi, -256(%rbp)
	movl	%r8d, -236(%rbp)
	movq	%rsi, -48(%rbp)
	movq	%rdx, -40(%rbp)
	movq	%rcx, -32(%rbp)
Ltmp862:
	.loc	54 38 23 prologue_end
	movq	%rcx, -24(%rbp)
Ltmp863:
	.loc	54 39 39
	movl	-236(%rbp), %eax
	movq	%rax, -248(%rbp)
	.loc	54 39 29 is_stmt 0
	cmpq	$0, %rax
	sete	%al
	testb	$1, %al
	jne	LBB104_2
	.loc	54 0 29
	movq	-288(%rbp), %rax
	movq	-248(%rbp), %rcx
	.loc	54 39 29
	xorl	%edx, %edx
	divq	%rcx
	movq	%rax, -232(%rbp)
	leaq	-224(%rbp), %rdi
	movq	%rdi, -296(%rbp)
Ltmp864:
	.loc	54 41 69 is_stmt 1
	callq	__ZN5ahash8hash_map21AHashMap$LT$K$C$V$GT$3new17h134cea6a45369ca3E
	movq	-280(%rbp), %rsi
	movq	-288(%rbp), %rdx
	movq	-272(%rbp), %rcx
	movq	-296(%rbp), %rax
Ltmp865:
	.loc	54 43 13
	movq	-232(%rbp), %rdi
	.loc	54 43 9 is_stmt 0
	movq	$0, -160(%rbp)
	movq	%rdi, -152(%rbp)
	leaq	-236(%rbp), %rdi
	.loc	54 43 37
	movq	%rdi, -144(%rbp)
	movq	%rsi, -136(%rbp)
	movq	%rdx, -128(%rbp)
	movq	%rcx, -120(%rbp)
	movq	%rax, -112(%rbp)
	leaq	-232(%rbp), %rax
	movq	%rax, -104(%rbp)
	.loc	54 43 9
	movq	-160(%rbp), %rdi
	movq	-152(%rbp), %rsi
Ltmp850:
	leaq	-144(%rbp), %rdx
	callq	__ZN4core4iter6traits8iterator8Iterator8for_each17h6a6a33120ce222b8E
Ltmp851:
	jmp	LBB104_5
Ltmp866:
LBB104_2:
	.loc	54 39 29 is_stmt 1
	leaq	_str.2(%rip), %rdi
	leaq	l___unnamed_13(%rip), %rdx
	movl	$25, %esi
	callq	__ZN4core9panicking5panic17h604fa998dd50d7a6E
LBB104_3:
Ltmp859:
	.loc	54 0 29 is_stmt 0
	leaq	-224(%rbp), %rdi
Ltmp867:
	.loc	54 74 5 is_stmt 1
	callq	__ZN4core3ptr100drop_in_place$LT$ahash..hash_map..AHashMap$LT$u32$C$sigalign..algorithm..anchor..AnchorTable$GT$$GT$17h87b68c32bfce6610E
Ltmp860:
	jmp	LBB104_10
LBB104_4:
Ltmp858:
	.loc	54 0 5 is_stmt 0
	movq	%rax, %rcx
	movl	%edx, %eax
	movq	%rcx, -16(%rbp)
	movl	%eax, -8(%rbp)
	jmp	LBB104_3
LBB104_5:
Ltmp852:
	leaq	-224(%rbp), %rdi
Ltmp868:
	.loc	54 69 9 is_stmt 1
	callq	__ZN89_$LT$ahash..hash_map..AHashMap$LT$K$C$V$C$S$GT$$u20$as$u20$core..ops..deref..DerefMut$GT$9deref_mut17h87ad8fef860c4796E
Ltmp853:
	movq	%rax, -304(%rbp)
	jmp	LBB104_6
LBB104_6:
Ltmp854:
	.loc	54 0 9 is_stmt 0
	movq	-304(%rbp), %rsi
	leaq	-96(%rbp), %rdi
	.loc	54 69 9
	callq	__ZN3std11collections4hash3map24HashMap$LT$K$C$V$C$S$GT$8iter_mut17h379ea586172de0bcE
Ltmp855:
	jmp	LBB104_7
LBB104_7:
	.loc	54 0 9
	leaq	-236(%rbp), %rax
	.loc	54 69 58
	movq	%rax, -56(%rbp)
	.loc	54 69 9
	movq	-56(%rbp), %rsi
Ltmp856:
	leaq	-96(%rbp), %rdi
	callq	__ZN4core4iter6traits8iterator8Iterator8for_each17h455c1860a7544067E
Ltmp857:
	jmp	LBB104_8
LBB104_8:
	.loc	54 0 9
	movq	-264(%rbp), %rdi
	.loc	54 73 9 is_stmt 1
	leaq	-224(%rbp), %rsi
	movl	$64, %edx
	callq	_memcpy
	movq	-256(%rbp), %rax
Ltmp869:
	.loc	54 74 6 epilogue_begin
	addq	$304, %rsp
	popq	%rbp
	retq
LBB104_9:
Ltmp861:
	.loc	54 33 5
	callq	__ZN4core9panicking19panic_cannot_unwind17h0477e80cce5de375E
LBB104_10:
	movq	-16(%rbp), %rdi
	callq	__Unwind_Resume
Ltmp870:
Lfunc_end104:
	.cfi_endproc
	.section	__TEXT,__gcc_except_tab
	.p2align	2, 0x0
GCC_except_table104:
Lexception26:
	.byte	255
	.byte	155
	.uleb128 Lttbase13-Lttbaseref13
Lttbaseref13:
	.byte	1
	.uleb128 Lcst_end26-Lcst_begin26
Lcst_begin26:
	.uleb128 Lfunc_begin104-Lfunc_begin104
	.uleb128 Ltmp850-Lfunc_begin104
	.byte	0
	.byte	0
	.uleb128 Ltmp850-Lfunc_begin104
	.uleb128 Ltmp851-Ltmp850
	.uleb128 Ltmp858-Lfunc_begin104
	.byte	0
	.uleb128 Ltmp851-Lfunc_begin104
	.uleb128 Ltmp859-Ltmp851
	.byte	0
	.byte	0
	.uleb128 Ltmp859-Lfunc_begin104
	.uleb128 Ltmp860-Ltmp859
	.uleb128 Ltmp861-Lfunc_begin104
	.byte	1
	.uleb128 Ltmp852-Lfunc_begin104
	.uleb128 Ltmp857-Ltmp852
	.uleb128 Ltmp858-Lfunc_begin104
	.byte	0
	.uleb128 Ltmp857-Lfunc_begin104
	.uleb128 Lfunc_end104-Ltmp857
	.byte	0
	.byte	0
Lcst_end26:
	.byte	127
	.byte	0
	.p2align	2, 0x0
Lttbase13:
	.byte	0
	.p2align	2, 0x0

	.section	__TEXT,__text,regular,pure_instructions
	.p2align	4, 0x90
__ZN8sigalign9algorithm6anchor11AnchorTable19new_by_target_index28_$u7b$$u7b$closure$u7d$$u7d$17h5f51dbb47467fc05E:
Lfunc_begin105:
	.loc	54 69 0
	.cfi_startproc
	pushq	%rbp
	.cfi_def_cfa_offset 16
	.cfi_offset %rbp, -16
	movq	%rsp, %rbp
	.cfi_def_cfa_register %rbp
	subq	$48, %rsp
	movq	%rdx, -40(%rbp)
	movq	%rdi, %rax
	movq	-40(%rbp), %rdi
	movq	%rax, -32(%rbp)
	movq	%rsi, -24(%rbp)
	movq	%rdi, -16(%rbp)
Ltmp871:
	.loc	54 69 63 prologue_end
	movq	%rdi, -8(%rbp)
Ltmp872:
	.loc	54 70 46
	movq	(%rax), %rax
	movl	(%rax), %esi
	.loc	54 70 13 is_stmt 0
	callq	__ZN8sigalign9algorithm6anchor11AnchorTable22merge_ungapped_anchors17h9b6cc2d4031af3a5E
Ltmp873:
	.loc	54 71 10 epilogue_begin is_stmt 1
	addq	$48, %rsp
	popq	%rbp
	retq
Ltmp874:
Lfunc_end105:
	.cfi_endproc

	.p2align	4, 0x90
__ZN8sigalign9algorithm6anchor11AnchorTable19new_by_target_index28_$u7b$$u7b$closure$u7d$$u7d$17hd41a9a737f42ef0fE:
Lfunc_begin106:
	.loc	54 43 0
	.cfi_startproc
	pushq	%rbp
	.cfi_def_cfa_offset 16
	.cfi_offset %rbp, -16
	movq	%rsp, %rbp
	.cfi_def_cfa_register %rbp
	subq	$208, %rsp
	movq	%rdi, -176(%rbp)
	movq	%rsi, -160(%rbp)
	movq	%rdi, -32(%rbp)
Ltmp875:
	.loc	54 44 27 prologue_end
	movq	-160(%rbp), %rax
	.loc	54 44 43 is_stmt 0
	movq	(%rdi), %rcx
	movl	(%rcx), %ecx
	.loc	54 44 27
	mulq	%rcx
	movq	%rax, -168(%rbp)
	seto	%al
	testb	$1, %al
	jne	LBB106_2
	.loc	54 0 27
	movq	-168(%rbp), %rax
	movq	-176(%rbp), %rcx
	.loc	54 44 27
	movq	%rax, -24(%rbp)
Ltmp876:
	.loc	54 45 28 is_stmt 1
	movq	8(%rcx), %rdx
	movq	%rdx, -200(%rbp)
	movq	16(%rcx), %rdx
	movq	%rdx, -192(%rbp)
	.loc	54 45 51 is_stmt 0
	movq	(%rcx), %rcx
	movl	(%rcx), %ecx
	.loc	54 45 43
	addq	%rcx, %rax
	movq	%rax, -184(%rbp)
	setb	%al
	testb	$1, %al
	jne	LBB106_4
	jmp	LBB106_3
Ltmp877:
LBB106_2:
	.loc	54 44 27 is_stmt 1
	leaq	_str.3(%rip), %rdi
	leaq	l___unnamed_14(%rip), %rdx
	movl	$33, %esi
	callq	__ZN4core9panicking5panic17h604fa998dd50d7a6E
LBB106_3:
	.loc	54 0 27 is_stmt 0
	movq	-192(%rbp), %rsi
	movq	-200(%rbp), %rdi
	movq	-184(%rbp), %rax
	movq	-168(%rbp), %rcx
Ltmp878:
	.loc	54 45 34 is_stmt 1
	movq	%rcx, -152(%rbp)
	movq	%rax, -144(%rbp)
	.loc	54 45 33 is_stmt 0
	movq	-152(%rbp), %rdx
	movq	-144(%rbp), %rcx
	leaq	l___unnamed_15(%rip), %r8
	callq	__ZN4core5slice5index74_$LT$impl$u20$core..ops..index..Index$LT$I$GT$$u20$for$u20$$u5b$T$u5d$$GT$5index17hc3eb645c89ebc53bE
	movq	%rax, %rcx
	movq	-176(%rbp), %rax
	movq	%rcx, -208(%rbp)
	movq	%rdx, %rcx
	movq	-208(%rbp), %rdx
	.loc	54 45 27
	movq	%rdx, -16(%rbp)
	movq	%rcx, -8(%rbp)
Ltmp879:
	.loc	54 47 37 is_stmt 1
	movq	24(%rax), %rsi
	leaq	-136(%rbp), %rdi
	callq	__ZN8sigalign9reference14pattern_search111_$LT$impl$u20$sigalign..core..BufferedPatternSearch$u20$for$u20$sigalign..reference..Reference$LT$I$C$S$GT$$GT$6locate17h8613187093b92fefE
Ltmp880:
	.loc	54 49 13
	movq	-136(%rbp), %rax
	movq	%rax, -80(%rbp)
	movq	-128(%rbp), %rax
	movq	%rax, -72(%rbp)
	movq	-120(%rbp), %rax
	movq	%rax, -64(%rbp)
	leaq	-112(%rbp), %rdi
	leaq	-80(%rbp), %rsi
	callq	__ZN90_$LT$alloc..vec..Vec$LT$T$C$A$GT$$u20$as$u20$core..iter..traits..collect..IntoIterator$GT$9into_iter17h6a8ea081359f54b6E
	movq	-176(%rbp), %rax
	.loc	54 49 52 is_stmt 0
	movq	32(%rax), %rcx
	movq	40(%rax), %rax
	movq	%rcx, -56(%rbp)
	leaq	-160(%rbp), %rcx
	movq	%rcx, -48(%rbp)
	movq	%rax, -40(%rbp)
	.loc	54 49 13
	leaq	-112(%rbp), %rdi
	leaq	-56(%rbp), %rsi
	callq	__ZN4core4iter6traits8iterator8Iterator8for_each17h4377c897adca075aE
Ltmp881:
	.loc	54 67 10 epilogue_begin is_stmt 1
	addq	$208, %rsp
	popq	%rbp
	retq
LBB106_4:
Ltmp882:
	.loc	54 45 43
	leaq	_str.1(%rip), %rdi
	leaq	l___unnamed_16(%rip), %rdx
	movl	$28, %esi
	callq	__ZN4core9panicking5panic17h604fa998dd50d7a6E
Ltmp883:
Lfunc_end106:
	.cfi_endproc

	.p2align	4, 0x90
__ZN8sigalign9algorithm6anchor11AnchorTable19new_by_target_index28_$u7b$$u7b$closure$u7d$$u7d$28_$u7b$$u7b$closure$u7d$$u7d$17hf5166916bdf428feE:
Lfunc_begin107:
	.loc	54 49 0
	.cfi_startproc
	.cfi_personality 155, _rust_eh_personality
	.cfi_lsda 16, Lexception27
	pushq	%rbp
	.cfi_def_cfa_offset 16
	.cfi_offset %rbp, -16
	movq	%rsp, %rbp
	.cfi_def_cfa_register %rbp
	subq	$192, %rsp
	movq	%rdi, -192(%rbp)
	movq	%rsi, -184(%rbp)
Ltmp903:
	movq	%rdi, -32(%rbp)
Ltmp904:
	.loc	54 50 23 prologue_end
	movb	$0, -34(%rbp)
	movb	$0, -33(%rbp)
	movb	$1, -33(%rbp)
	movq	(%rdi), %rdi
	.loc	54 50 60 is_stmt 0
	addq	$24, %rsi
Ltmp905:
Ltmp884:
	.loc	54 50 23
	callq	__ZN5ahash8hash_map25AHashMap$LT$K$C$V$C$S$GT$7get_mut17hb71ed014e183b4abE
Ltmp885:
	movq	%rax, -176(%rbp)
Ltmp906:
	jmp	LBB107_3
Ltmp907:
LBB107_1:
	.loc	54 66 13 is_stmt 1
	testb	$1, -33(%rbp)
	jne	LBB107_17
	jmp	LBB107_16
Ltmp908:
LBB107_2:
Ltmp890:
	.loc	54 0 13 is_stmt 0
	movq	%rax, %rcx
	movl	%edx, %eax
	movq	%rcx, -24(%rbp)
	movl	%eax, -16(%rbp)
	jmp	LBB107_1
Ltmp909:
LBB107_3:
	movq	-176(%rbp), %rax
	.loc	54 50 23 is_stmt 1
	movq	%rax, -168(%rbp)
	movq	-168(%rbp), %rdx
	movl	$1, %eax
	xorl	%ecx, %ecx
	cmpq	$0, %rdx
	cmoveq	%rcx, %rax
	.loc	54 50 17 is_stmt 0
	cmpq	$0, %rax
	jne	LBB107_5
Ltmp910:
	.loc	54 0 17
	movq	-192(%rbp), %rax
	.loc	54 58 65 is_stmt 1
	movq	16(%rax), %rax
	movq	(%rax), %rsi
Ltmp888:
	leaq	-136(%rbp), %rdi
	.loc	54 58 49 is_stmt 0
	callq	__ZN8sigalign9algorithm6anchor11AnchorTable9new_empty17hbc5cd518be6c6658E
Ltmp889:
	jmp	LBB107_6
Ltmp911:
LBB107_5:
	.loc	54 0 49
	movq	-184(%rbp), %rcx
	movq	-192(%rbp), %rax
	.loc	54 51 26 is_stmt 1
	movq	-168(%rbp), %rdi
	movq	%rdi, -8(%rbp)
Ltmp912:
	.loc	54 53 29
	movq	8(%rax), %rax
	movq	(%rax), %rsi
	.loc	54 54 29
	movb	$0, -33(%rbp)
	movq	16(%rcx), %rax
	movq	%rax, -144(%rbp)
	movq	(%rcx), %rax
	movq	8(%rcx), %rcx
	movq	%rcx, -152(%rbp)
	movq	%rax, -160(%rbp)
Ltmp886:
	leaq	-160(%rbp), %rdx
	.loc	54 52 25
	callq	__ZN8sigalign9algorithm6anchor11AnchorTable17add_new_positions17h733dd94399583d05E
Ltmp887:
	jmp	LBB107_15
Ltmp913:
LBB107_6:
	.loc	54 0 25 is_stmt 0
	movq	-184(%rbp), %rcx
	movq	-192(%rbp), %rax
	.loc	54 58 78 is_stmt 1
	movb	$1, -34(%rbp)
Ltmp914:
	.loc	54 60 29
	movq	8(%rax), %rax
	movq	(%rax), %rsi
	.loc	54 61 29
	movb	$0, -33(%rbp)
	movq	16(%rcx), %rax
	movq	%rax, -96(%rbp)
	movq	(%rcx), %rax
	movq	8(%rcx), %rcx
	movq	%rcx, -104(%rbp)
	movq	%rax, -112(%rbp)
Ltmp891:
	leaq	-136(%rbp), %rdi
	leaq	-112(%rbp), %rdx
	.loc	54 59 25
	callq	__ZN8sigalign9algorithm6anchor11AnchorTable17add_new_positions17h733dd94399583d05E
Ltmp892:
	jmp	LBB107_9
Ltmp915:
LBB107_7:
	.loc	54 64 21
	testb	$1, -34(%rbp)
	jne	LBB107_13
	jmp	LBB107_1
Ltmp916:
LBB107_8:
Ltmp897:
	.loc	54 0 21 is_stmt 0
	movq	%rax, %rcx
	movl	%edx, %eax
	movq	%rcx, -24(%rbp)
	movl	%eax, -16(%rbp)
	jmp	LBB107_7
Ltmp917:
LBB107_9:
	movq	-184(%rbp), %rax
	movq	-192(%rbp), %rcx
Ltmp918:
	.loc	54 63 25 is_stmt 1
	movq	(%rcx), %rsi
	.loc	54 63 61 is_stmt 0
	movl	24(%rax), %edx
	.loc	54 63 92
	movb	$0, -34(%rbp)
	movq	-120(%rbp), %rax
	movq	%rax, -48(%rbp)
	movq	-136(%rbp), %rax
	movq	-128(%rbp), %rcx
	movq	%rcx, -56(%rbp)
	movq	%rax, -64(%rbp)
Ltmp893:
	leaq	-88(%rbp), %rdi
	leaq	-64(%rbp), %rcx
	.loc	54 63 25
	callq	__ZN5ahash8hash_map25AHashMap$LT$K$C$V$C$S$GT$6insert17hece0fd938921d0faE
Ltmp894:
	jmp	LBB107_10
Ltmp919:
LBB107_10:
Ltmp895:
	.loc	54 0 25
	leaq	-88(%rbp), %rdi
	.loc	54 63 106
	callq	__ZN4core3ptr89drop_in_place$LT$core..option..Option$LT$sigalign..algorithm..anchor..AnchorTable$GT$$GT$17hbc5a8b7d0de8a1e7E
Ltmp896:
	jmp	LBB107_11
Ltmp920:
LBB107_11:
	.loc	54 64 21 is_stmt 1
	movb	$0, -34(%rbp)
Ltmp921:
LBB107_12:
	.loc	54 66 14 epilogue_begin
	addq	$192, %rsp
	popq	%rbp
	retq
Ltmp922:
LBB107_13:
Ltmp898:
	.loc	54 0 14 is_stmt 0
	leaq	-136(%rbp), %rdi
	.loc	54 64 21 is_stmt 1
	callq	__ZN4core3ptr61drop_in_place$LT$sigalign..algorithm..anchor..AnchorTable$GT$17hef8bacf63aa8f3a7E
Ltmp899:
	jmp	LBB107_1
Ltmp923:
LBB107_14:
Ltmp902:
	.loc	54 49 52
	callq	__ZN4core9panicking19panic_cannot_unwind17h0477e80cce5de375E
Ltmp924:
LBB107_15:
	.loc	54 52 25
	jmp	LBB107_12
Ltmp925:
LBB107_16:
	.loc	54 49 52
	movq	-24(%rbp), %rdi
	callq	__Unwind_Resume
Ltmp926:
LBB107_17:
Ltmp900:
	.loc	54 0 52 is_stmt 0
	movq	-184(%rbp), %rdi
	.loc	54 66 13 is_stmt 1
	callq	__ZN4core3ptr47drop_in_place$LT$alloc..vec..Vec$LT$u32$GT$$GT$17h03c1eeb5196e62eaE
Ltmp901:
	jmp	LBB107_16
Ltmp927:
Lfunc_end107:
	.cfi_endproc
	.section	__TEXT,__gcc_except_tab
	.p2align	2, 0x0
GCC_except_table107:
Lexception27:
	.byte	255
	.byte	155
	.uleb128 Lttbase14-Lttbaseref14
Lttbaseref14:
	.byte	1
	.uleb128 Lcst_end27-Lcst_begin27
Lcst_begin27:
	.uleb128 Ltmp884-Lfunc_begin107
	.uleb128 Ltmp887-Ltmp884
	.uleb128 Ltmp890-Lfunc_begin107
	.byte	0
	.uleb128 Ltmp891-Lfunc_begin107
	.uleb128 Ltmp896-Ltmp891
	.uleb128 Ltmp897-Lfunc_begin107
	.byte	0
	.uleb128 Ltmp898-Lfunc_begin107
	.uleb128 Ltmp899-Ltmp898
	.uleb128 Ltmp902-Lfunc_begin107
	.byte	1
	.uleb128 Ltmp899-Lfunc_begin107
	.uleb128 Ltmp900-Ltmp899
	.byte	0
	.byte	0
	.uleb128 Ltmp900-Lfunc_begin107
	.uleb128 Ltmp901-Ltmp900
	.uleb128 Ltmp902-Lfunc_begin107
	.byte	1
Lcst_end27:
	.byte	127
	.byte	0
	.p2align	2, 0x0
Lttbase14:
	.byte	0
	.p2align	2, 0x0

	.section	__TEXT,__text,regular,pure_instructions
	.p2align	4, 0x90
__ZN8sigalign9reference14pattern_search111_$LT$impl$u20$sigalign..core..BufferedPatternSearch$u20$for$u20$sigalign..reference..Reference$LT$I$C$S$GT$$GT$11fill_buffer17ha099bfb2fb48c55dE:
Lfunc_begin108:
	.file	55 "/Users/khun/Dev/Repos/sigalign" "sigalign/src/reference/pattern_search/mod.rs"
	.loc	55 33 0
	.cfi_startproc
	pushq	%rbp
	.cfi_def_cfa_offset 16
	.cfi_offset %rbp, -16
	movq	%rsp, %rbp
	.cfi_def_cfa_register %rbp
	subq	$32, %rsp
	movq	%rdi, -24(%rbp)
	movl	%esi, -12(%rbp)
	movq	%rdx, -8(%rbp)
Ltmp928:
	.loc	55 34 9 prologue_end
	addq	$488, %rdi
	callq	__ZN140_$LT$sigalign..reference..sequence_storage..in_memory..InMemoryStorage$u20$as$u20$sigalign..reference..sequence_storage..SequenceStorage$GT$11fill_buffer17hd8d1937e93b4a193E
	.loc	55 35 6 epilogue_begin
	addq	$32, %rsp
	popq	%rbp
	retq
Ltmp929:
Lfunc_end108:
	.cfi_endproc

	.p2align	4, 0x90
__ZN8sigalign9reference14pattern_search111_$LT$impl$u20$sigalign..core..BufferedPatternSearch$u20$for$u20$sigalign..reference..Reference$LT$I$C$S$GT$$GT$6locate17h8613187093b92fefE:
Lfunc_begin109:
	.loc	55 30 0
	.cfi_startproc
	pushq	%rbp
	.cfi_def_cfa_offset 16
	.cfi_offset %rbp, -16
	movq	%rsp, %rbp
	.cfi_def_cfa_register %rbp
	subq	$32, %rsp
	movq	%rdi, %rax
	movq	%rax, -32(%rbp)
	movq	%rsi, -24(%rbp)
	movq	%rdx, -16(%rbp)
	movq	%rcx, -8(%rbp)
Ltmp930:
	.loc	55 31 44 prologue_end
	movq	%rsi, %r8
	addq	$464, %r8
	.loc	55 31 9 is_stmt 0
	callq	__ZN129_$LT$sigalign..reference..pattern_index..lfi..dynamic..DynamicLfi$u20$as$u20$sigalign..reference..pattern_index..PatternIndex$GT$6locate17h3bf24332f3243864E
	movq	-32(%rbp), %rax
	.loc	55 32 6 epilogue_begin is_stmt 1
	addq	$32, %rsp
	popq	%rbp
	retq
Ltmp931:
Lfunc_end109:
	.cfi_endproc

	.p2align	4, 0x90
__ZN8sigalign9reference14pattern_search61_$LT$impl$u20$sigalign..reference..Reference$LT$I$C$S$GT$$GT$19get_sequence_buffer17h6dab92b8e180ad50E:
Lfunc_begin110:
	.loc	55 15 0
	.cfi_startproc
	pushq	%rbp
	.cfi_def_cfa_offset 16
	.cfi_offset %rbp, -16
	movq	%rsp, %rbp
	.cfi_def_cfa_register %rbp
	subq	$16, %rsp
	movq	%rdi, -8(%rbp)
Ltmp932:
	.loc	55 16 9 prologue_end
	addq	$488, %rdi
	callq	__ZN140_$LT$sigalign..reference..sequence_storage..in_memory..InMemoryStorage$u20$as$u20$sigalign..reference..sequence_storage..SequenceStorage$GT$10get_buffer17hf28822b33bb04eecE
	.loc	55 17 6 epilogue_begin
	addq	$16, %rsp
	popq	%rbp
	retq
Ltmp933:
Lfunc_end110:
	.cfi_endproc

	.p2align	4, 0x90
__ZN90_$LT$alloc..vec..Vec$LT$T$C$A$GT$$u20$as$u20$core..iter..traits..collect..IntoIterator$GT$9into_iter17h6a8ea081359f54b6E:
Lfunc_begin111:
	.loc	21 2722 0
	.cfi_startproc
	pushq	%rbp
	.cfi_def_cfa_offset 16
	.cfi_offset %rbp, -16
	movq	%rsp, %rbp
	.cfi_def_cfa_register %rbp
	subq	$48, %rsp
	movq	%rdi, -176(%rbp)
	movq	%rdi, -168(%rbp)
Ltmp934:
	.loc	11 71 9 prologue_end
	movq	(%rsi), %rax
	movq	%rax, -144(%rbp)
	movq	8(%rsi), %rax
	movq	%rax, -136(%rbp)
	movq	16(%rsi), %rax
	movq	%rax, -128(%rbp)
Ltmp935:
	.loc	22 223 9
	movq	-144(%rbp), %rax
	movq	%rax, -160(%rbp)
	movq	%rax, -72(%rbp)
Ltmp936:
	.loc	23 326 9
	movq	%rax, -64(%rbp)
Ltmp937:
	.loc	21 2727 26
	xorl	%eax, %eax
	testb	$1, %al
	jne	LBB111_2
Ltmp938:
	.loc	21 0 26 is_stmt 0
	movq	-160(%rbp), %rax
Ltmp939:
	.loc	21 2051 9 is_stmt 1
	movq	-128(%rbp), %rcx
	movq	%rcx, -56(%rbp)
Ltmp940:
	.loc	5 1024 18
	shlq	$5, %rcx
	addq	%rcx, %rax
Ltmp941:
	.loc	21 2730 17
	movq	%rax, -120(%rbp)
	.loc	21 2727 23
	jmp	LBB111_3
Ltmp942:
LBB111_2:
	.loc	21 0 23 is_stmt 0
	movq	-160(%rbp), %rax
Ltmp943:
	.loc	21 2051 9 is_stmt 1
	movq	-128(%rbp), %rcx
	movq	%rcx, -48(%rbp)
Ltmp944:
	.loc	5 61 9
	movq	%rax, -40(%rbp)
Ltmp945:
	.loc	5 1197 30
	movq	%rcx, -32(%rbp)
Ltmp946:
	.loc	5 562 18
	addq	%rcx, %rax
	movq	%rax, -24(%rbp)
	movq	-24(%rbp), %rax
	movq	%rax, -16(%rbp)
Ltmp947:
	.loc	5 100 33
	movq	%rax, -8(%rbp)
Ltmp948:
	.loc	8 135 36
	movq	%rax, -88(%rbp)
	.loc	8 135 14 is_stmt 0
	movq	-88(%rbp), %rax
	movq	%rax, -96(%rbp)
	movq	-96(%rbp), %rax
Ltmp949:
	.loc	21 2727 36 is_stmt 1
	movq	%rax, -120(%rbp)
Ltmp950:
LBB111_3:
	.loc	22 231 12
	xorl	%eax, %eax
	testb	$1, %al
	jne	LBB111_5
	jmp	LBB111_4
Ltmp951:
LBB111_4:
	.loc	22 231 44 is_stmt 0
	movq	-136(%rbp), %rax
	movq	%rax, -112(%rbp)
	.loc	22 231 9
	jmp	LBB111_6
Ltmp952:
LBB111_5:
	.loc	22 231 24
	movq	$-1, -112(%rbp)
Ltmp953:
LBB111_6:
	.loc	22 0 24
	movq	-168(%rbp), %rax
	movq	-176(%rbp), %rcx
	movq	-160(%rbp), %rsi
Ltmp954:
	.loc	23 201 13 is_stmt 1
	movq	%rsi, -104(%rbp)
Ltmp955:
	.loc	21 2736 17
	movq	-112(%rbp), %rdi
	.loc	21 2739 17
	movq	-120(%rbp), %rdx
	.loc	21 2733 13
	movq	-104(%rbp), %r8
	movq	%r8, (%rcx)
	movq	%rdi, 8(%rcx)
	movq	%rsi, 16(%rcx)
	movq	%rdx, 24(%rcx)
Ltmp956:
	.loc	21 2742 6 epilogue_begin
	addq	$48, %rsp
	popq	%rbp
	retq
Ltmp957:
Lfunc_end111:
	.cfi_endproc

	.p2align	4, 0x90
__ZN91_$LT$hashbrown..raw..RawIter$LT$T$GT$$u20$as$u20$core..iter..traits..iterator..Iterator$GT$4next17h56a0e33a79339bf9E:
Lfunc_begin112:
	.loc	17 3042 0
	.cfi_startproc
	pushq	%rbp
	.cfi_def_cfa_offset 16
	.cfi_offset %rbp, -16
	movq	%rsp, %rbp
	.cfi_def_cfa_register %rbp
	subq	$32, %rsp
	movq	%rdi, -32(%rbp)
	movq	%rdi, -16(%rbp)
Ltmp958:
	.loc	17 3045 12 prologue_end
	cmpq	$0, 32(%rdi)
	jne	LBB112_2
	.loc	17 3046 20
	movq	$0, -24(%rbp)
	.loc	17 3058 6
	jmp	LBB112_3
LBB112_2:
	.loc	17 0 6 is_stmt 0
	movq	-32(%rbp), %rdi
	.loc	17 3051 13 is_stmt 1
	callq	__ZN9hashbrown3raw21RawIterRange$LT$T$GT$9next_impl17hbea1a2addb4f38d4E
	movq	-32(%rbp), %rcx
	movq	%rax, -8(%rbp)
Ltmp959:
	.loc	17 3055 9
	movq	32(%rcx), %rdx
	subq	$1, %rdx
	movq	%rdx, 32(%rcx)
	.loc	17 3057 9
	movq	%rax, -24(%rbp)
Ltmp960:
LBB112_3:
	.loc	17 3058 6
	movq	-24(%rbp), %rax
	.loc	17 3058 6 epilogue_begin is_stmt 0
	addq	$32, %rsp
	popq	%rbp
	retq
Ltmp961:
Lfunc_end112:
	.cfi_endproc

	.p2align	4, 0x90
__ZN95_$LT$alloc..vec..Vec$LT$T$GT$$u20$as$u20$core..iter..traits..collect..FromIterator$LT$T$GT$$GT$9from_iter17h6c436f7cfcec337fE:
Lfunc_begin113:
	.loc	21 2695 0 is_stmt 1
	.cfi_startproc
	pushq	%rbp
	.cfi_def_cfa_offset 16
	.cfi_offset %rbp, -16
	movq	%rsp, %rbp
	.cfi_def_cfa_register %rbp
	subq	$176, %rsp
	movq	%rdi, -168(%rbp)
	movq	%rdi, -160(%rbp)
Ltmp962:
	.loc	21 2696 59 prologue_end
	leaq	-152(%rbp), %rdi
	callq	__ZN63_$LT$I$u20$as$u20$core..iter..traits..collect..IntoIterator$GT$9into_iter17h7246361bddea94f8E
Ltmp963:
	.loc	21 0 59 is_stmt 0
	movq	-168(%rbp), %rdi
	.loc	21 2696 9
	leaq	-152(%rbp), %rsi
	callq	__ZN98_$LT$alloc..vec..Vec$LT$T$GT$$u20$as$u20$alloc..vec..spec_from_iter..SpecFromIter$LT$T$C$I$GT$$GT$9from_iter17h496f8c6d851ce080E
	movq	-160(%rbp), %rax
	.loc	21 2697 6 epilogue_begin is_stmt 1
	addq	$176, %rsp
	popq	%rbp
	retq
Ltmp964:
Lfunc_end113:
	.cfi_endproc

	.p2align	4, 0x90
__ZN95_$LT$alloc..vec..Vec$LT$T$GT$$u20$as$u20$core..iter..traits..collect..FromIterator$LT$T$GT$$GT$9from_iter17had44d8675a12fc62E:
Lfunc_begin114:
	.loc	21 2695 0
	.cfi_startproc
	pushq	%rbp
	.cfi_def_cfa_offset 16
	.cfi_offset %rbp, -16
	movq	%rsp, %rbp
	.cfi_def_cfa_register %rbp
	subq	$160, %rsp
	movq	%rdi, -152(%rbp)
	movq	%rdi, -144(%rbp)
Ltmp965:
	.loc	21 2696 59 prologue_end
	leaq	-136(%rbp), %rdi
	callq	__ZN63_$LT$I$u20$as$u20$core..iter..traits..collect..IntoIterator$GT$9into_iter17h352135f64c4f7cf6E
Ltmp966:
	.loc	21 0 59 is_stmt 0
	movq	-152(%rbp), %rdi
	.loc	21 2696 9
	leaq	-136(%rbp), %rsi
	callq	__ZN98_$LT$alloc..vec..Vec$LT$T$GT$$u20$as$u20$alloc..vec..spec_from_iter..SpecFromIter$LT$T$C$I$GT$$GT$9from_iter17ha685bf9fcbc354eaE
	movq	-144(%rbp), %rax
	.loc	21 2697 6 epilogue_begin is_stmt 1
	addq	$160, %rsp
	popq	%rbp
	retq
Ltmp967:
Lfunc_end114:
	.cfi_endproc

	.p2align	4, 0x90
__ZN95_$LT$core..ops..control_flow..ControlFlow$LT$B$C$C$GT$$u20$as$u20$core..ops..try_trait..Try$GT$11from_output17h13c912d0af64c56cE:
Lfunc_begin115:
	.loc	14 105 0
	.cfi_startproc
	pushq	%rbp
	.cfi_def_cfa_offset 16
	.cfi_offset %rbp, -16
	movq	%rsp, %rbp
	.cfi_def_cfa_register %rbp
	movq	%rdi, %rax
Ltmp968:
	.loc	14 106 9 prologue_end
	movq	$0, (%rdi)
	.loc	14 107 6 epilogue_begin
	popq	%rbp
	retq
Ltmp969:
Lfunc_end115:
	.cfi_endproc

	.p2align	4, 0x90
__ZN95_$LT$core..ops..control_flow..ControlFlow$LT$B$C$C$GT$$u20$as$u20$core..ops..try_trait..Try$GT$6branch17h5c251d0aa37db8f2E:
Lfunc_begin116:
	.loc	14 110 0
	.cfi_startproc
	pushq	%rbp
	.cfi_def_cfa_offset 16
	.cfi_offset %rbp, -16
	movq	%rsp, %rbp
	.cfi_def_cfa_register %rbp
	movq	%rsi, -96(%rbp)
Ltmp970:
	movq	%rdi, -88(%rbp)
	movq	%rdi, -80(%rbp)
Ltmp971:
	.loc	14 111 15 prologue_end
	movq	(%rsi), %rdx
	movl	$1, %eax
	xorl	%ecx, %ecx
	cmpq	$0, %rdx
	cmoveq	%rcx, %rax
	.loc	14 111 9 is_stmt 0
	cmpq	$0, %rax
Ltmp972:
	jne	LBB116_2
Ltmp973:
	.loc	14 0 9
	movq	-88(%rbp), %rax
Ltmp974:
	.loc	14 112 41 is_stmt 1
	movq	$0, (%rax)
Ltmp975:
	.loc	14 112 64 is_stmt 0
	jmp	LBB116_3
Ltmp976:
LBB116_2:
	.loc	14 0 64
	movq	-88(%rbp), %rax
	movq	-96(%rbp), %rcx
	.loc	14 113 32 is_stmt 1
	movq	(%rcx), %rdx
	movq	%rdx, -72(%rbp)
	movq	8(%rcx), %rdx
	movq	%rdx, -64(%rbp)
	movq	16(%rcx), %rdx
	movq	%rdx, -56(%rbp)
	movq	24(%rcx), %rcx
	movq	%rcx, -48(%rbp)
Ltmp977:
	.loc	14 113 57 is_stmt 0
	movq	-72(%rbp), %rcx
	movq	%rcx, -40(%rbp)
	movq	-64(%rbp), %rcx
	movq	%rcx, -32(%rbp)
	movq	-56(%rbp), %rcx
	movq	%rcx, -24(%rbp)
	movq	-48(%rbp), %rcx
	movq	%rcx, -16(%rbp)
	.loc	14 113 38
	movq	-40(%rbp), %rcx
	movq	%rcx, (%rax)
	movq	-32(%rbp), %rcx
	movq	%rcx, 8(%rax)
	movq	-24(%rbp), %rcx
	movq	%rcx, 16(%rax)
	movq	-16(%rbp), %rcx
	movq	%rcx, 24(%rax)
Ltmp978:
LBB116_3:
	.loc	14 0 38
	movq	-80(%rbp), %rax
	.loc	14 115 6 epilogue_begin is_stmt 1
	popq	%rbp
	retq
Ltmp979:
Lfunc_end116:
	.cfi_endproc

	.p2align	4, 0x90
__ZN95_$LT$hashbrown..map..IterMut$LT$K$C$V$GT$$u20$as$u20$core..iter..traits..iterator..Iterator$GT$4next17he13a7e52d1c085f5E:
Lfunc_begin117:
	.loc	18 4761 0
	.cfi_startproc
	pushq	%rbp
	.cfi_def_cfa_offset 16
	.cfi_offset %rbp, -16
	movq	%rsp, %rbp
	.cfi_def_cfa_register %rbp
	subq	$128, %rsp
Ltmp980:
	.loc	5 1104 35 prologue_end
	movq	$1, -112(%rbp)
Ltmp981:
	.loc	5 476 38
	movq	$-1, -104(%rbp)
	movq	%rdi, -48(%rbp)
Ltmp982:
	.loc	18 4763 15
	callq	__ZN91_$LT$hashbrown..raw..RawIter$LT$T$GT$$u20$as$u20$core..iter..traits..iterator..Iterator$GT$4next17h56a0e33a79339bf9E
	movq	%rax, -80(%rbp)
	movq	-80(%rbp), %rdx
	movl	$1, %eax
	xorl	%ecx, %ecx
	cmpq	$0, %rdx
	cmoveq	%rcx, %rax
	.loc	18 4763 9 is_stmt 0
	cmpq	$0, %rax
	jne	LBB117_2
	.loc	18 4768 21 is_stmt 1
	movq	$0, -96(%rbp)
	jmp	LBB117_3
LBB117_2:
	.loc	18 4764 18
	movq	-80(%rbp), %rax
	movq	%rax, -120(%rbp)
	movq	%rax, -40(%rbp)
Ltmp983:
	.loc	17 505 12
	xorl	%eax, %eax
	testb	$1, %al
	jne	LBB117_5
	jmp	LBB117_4
Ltmp984:
LBB117_3:
	.loc	18 4770 6
	movq	-96(%rbp), %rax
	movq	-88(%rbp), %rdx
	.loc	18 4770 6 epilogue_begin is_stmt 0
	addq	$128, %rsp
	popq	%rbp
	retq
LBB117_4:
	.loc	18 0 6
	movq	-120(%rbp), %rax
Ltmp985:
	.loc	17 510 22 is_stmt 1
	movq	%rax, -32(%rbp)
Ltmp986:
	.loc	23 326 9
	movq	%rax, -24(%rbp)
Ltmp987:
	.loc	5 1108 12
	xorl	%eax, %eax
	testb	$1, %al
	jne	LBB117_7
	jmp	LBB117_6
Ltmp988:
LBB117_5:
	.loc	9 466 5
	movq	$8, -16(%rbp)
Ltmp989:
	.loc	7 606 14
	movl	$8, %eax
	movq	%rax, -56(%rbp)
Ltmp990:
	.loc	17 505 9
	jmp	LBB117_9
LBB117_6:
	.loc	17 0 9 is_stmt 0
	movq	-120(%rbp), %rax
Ltmp991:
	.loc	5 483 18 is_stmt 1
	addq	$-32, %rax
	movq	%rax, -56(%rbp)
Ltmp992:
	.loc	5 1108 9
	jmp	LBB117_8
LBB117_7:
	.loc	5 0 9 is_stmt 0
	movq	-120(%rbp), %rax
	.loc	5 1110 13 is_stmt 1
	movq	%rax, -56(%rbp)
Ltmp993:
LBB117_8:
	.loc	17 505 9
	jmp	LBB117_9
Ltmp994:
LBB117_9:
	.loc	17 742 9
	movq	-56(%rbp), %rcx
	movq	%rcx, -8(%rbp)
Ltmp995:
	.loc	18 4766 29
	movq	%rcx, %rax
	addq	$8, %rax
	.loc	18 4766 22 is_stmt 0
	movq	%rcx, -72(%rbp)
	movq	%rax, -64(%rbp)
	.loc	18 4766 17
	movq	-72(%rbp), %rcx
	movq	-64(%rbp), %rax
	movq	%rcx, -96(%rbp)
	movq	%rax, -88(%rbp)
Ltmp996:
	.loc	18 4767 13 is_stmt 1
	jmp	LBB117_3
Ltmp997:
Lfunc_end117:
	.cfi_endproc

	.p2align	4, 0x90
__ZN95_$LT$hashbrown..raw..bitmask..BitMaskIter$u20$as$u20$core..iter..traits..iterator..Iterator$GT$4next17hd99a669776665727E:
Lfunc_begin118:
	.file	56 "/Users/runner/.cargo/registry/src/index.crates.io-6f17d22bba15001f/hashbrown-0.14.0/src/raw" "bitmask.rs"
	.loc	56 128 0
	.cfi_startproc
	pushq	%rbp
	.cfi_def_cfa_offset 16
	.cfi_offset %rbp, -16
	movq	%rsp, %rbp
	.cfi_def_cfa_register %rbp
	movq	%rdi, -112(%rbp)
Ltmp998:
	.loc	36 2489 22 prologue_end
	movq	%rdi, -40(%rbp)
Ltmp999:
	.loc	56 129 19
	movw	(%rdi), %ax
	movw	%ax, -100(%rbp)
	movw	%ax, -30(%rbp)
Ltmp1000:
	.file	57 "/rustc/cc66ad468955717ab92600c770da8c1601a4ff33/library/core/src/num" "nonzero.rs"
	.loc	57 165 1
	cmpw	$0, %ax
	jne	LBB118_2
	movw	$0, -44(%rbp)
	jmp	LBB118_3
LBB118_2:
	.loc	57 0 1 is_stmt 0
	movw	-100(%rbp), %ax
	.loc	57 165 1
	movw	%ax, -42(%rbp)
	movw	-42(%rbp), %ax
	movw	%ax, -44(%rbp)
Ltmp1001:
LBB118_3:
	.loc	56 50 16 is_stmt 1
	movl	$1, %eax
	xorl	%ecx, %ecx
	cmpw	$0, -44(%rbp)
	cmoveq	%rcx, %rax
	cmpq	$1, %rax
	jne	LBB118_5
	.loc	56 50 21 is_stmt 0
	movw	-44(%rbp), %cx
	movw	%cx, -28(%rbp)
Ltmp1002:
	.loc	57 254 1 is_stmt 1
	movw	%cx, %ax
	rep		bsfl	%eax, %eax
	movw	%ax, -26(%rbp)
	movzwl	-26(%rbp), %eax
Ltmp1003:
	.loc	56 80 13
	movl	%eax, %eax
	shrq	$0, %rax
Ltmp1004:
	.loc	56 51 13
	movq	%rax, -56(%rbp)
	movq	$1, -64(%rbp)
Ltmp1005:
	.loc	56 50 9
	jmp	LBB118_6
LBB118_5:
	.loc	56 53 13
	movq	$0, -64(%rbp)
Ltmp1006:
LBB118_6:
	.loc	36 2479 9
	cmpq	$0, -64(%rbp)
	jne	LBB118_8
	.loc	36 2481 21
	movq	$1, -80(%rbp)
	.loc	36 2481 44 is_stmt 0
	jmp	LBB118_9
LBB118_8:
	.loc	36 2480 18 is_stmt 1
	movq	-56(%rbp), %rax
	movq	%rax, -24(%rbp)
Ltmp1007:
	.loc	36 2480 24 is_stmt 0
	movq	%rax, -72(%rbp)
	movq	$0, -80(%rbp)
Ltmp1008:
LBB118_9:
	.loc	56 129 19 is_stmt 1
	cmpq	$0, -80(%rbp)
	jne	LBB118_11
	.loc	56 0 19 is_stmt 0
	movq	-112(%rbp), %rcx
	.loc	56 129 19
	movq	-72(%rbp), %rax
	movq	%rax, -16(%rbp)
Ltmp1009:
	.loc	56 130 18 is_stmt 1
	movw	(%rcx), %dx
	movw	%dx, -2(%rbp)
Ltmp1010:
	.loc	56 38 26
	movw	%dx, %si
	subw	$1, %si
	.loc	56 38 17 is_stmt 0
	andw	%si, %dx
	.loc	56 38 9
	movw	%dx, -46(%rbp)
Ltmp1011:
	.loc	56 130 9 is_stmt 1
	movw	-46(%rbp), %dx
	movw	%dx, (%rcx)
	.loc	56 131 9
	movq	%rax, -88(%rbp)
	movq	$1, -96(%rbp)
Ltmp1012:
	.loc	56 132 6
	jmp	LBB118_12
LBB118_11:
Ltmp1013:
	.loc	36 2491 21
	movq	$0, -96(%rbp)
Ltmp1014:
LBB118_12:
	.loc	56 132 6
	movq	-96(%rbp), %rax
	movq	-88(%rbp), %rdx
	.loc	56 132 6 epilogue_begin is_stmt 0
	popq	%rbp
	retq
Ltmp1015:
Lfunc_end118:
	.cfi_endproc

	.p2align	4, 0x90
__ZN97_$LT$alloc..vec..Vec$LT$T$C$A$GT$$u20$as$u20$alloc..vec..spec_extend..SpecExtend$LT$T$C$I$GT$$GT$11spec_extend17h56f949a019f628b3E:
Lfunc_begin119:
	.file	58 "/rustc/cc66ad468955717ab92600c770da8c1601a4ff33/library/alloc/src/vec" "spec_extend.rs"
	.loc	58 16 0 is_stmt 1
	.cfi_startproc
	pushq	%rbp
	.cfi_def_cfa_offset 16
	.cfi_offset %rbp, -16
	movq	%rsp, %rbp
	.cfi_def_cfa_register %rbp
	subq	$16, %rsp
	movq	%rdi, -8(%rbp)
Ltmp1016:
	.loc	58 17 9 prologue_end
	callq	__ZN5alloc3vec16Vec$LT$T$C$A$GT$16extend_desugared17hd7361e8efb875cd8E
Ltmp1017:
	.loc	58 18 6 epilogue_begin
	addq	$16, %rsp
	popq	%rbp
	retq
Ltmp1018:
Lfunc_end119:
	.cfi_endproc

	.p2align	4, 0x90
__ZN97_$LT$alloc..vec..Vec$LT$T$C$A$GT$$u20$as$u20$alloc..vec..spec_extend..SpecExtend$LT$T$C$I$GT$$GT$11spec_extend17h963d9cd6484fcce3E:
Lfunc_begin120:
	.loc	58 16 0
	.cfi_startproc
	pushq	%rbp
	.cfi_def_cfa_offset 16
	.cfi_offset %rbp, -16
	movq	%rsp, %rbp
	.cfi_def_cfa_register %rbp
	subq	$16, %rsp
	movq	%rdi, -8(%rbp)
Ltmp1019:
	.loc	58 17 9 prologue_end
	callq	__ZN5alloc3vec16Vec$LT$T$C$A$GT$16extend_desugared17h60c0888dbe165980E
Ltmp1020:
	.loc	58 18 6 epilogue_begin
	addq	$16, %rsp
	popq	%rbp
	retq
Ltmp1021:
Lfunc_end120:
	.cfi_endproc

	.p2align	4, 0x90
__ZN98_$LT$alloc..vec..Vec$LT$T$GT$$u20$as$u20$alloc..vec..spec_from_iter..SpecFromIter$LT$T$C$I$GT$$GT$9from_iter17h496f8c6d851ce080E:
Lfunc_begin121:
	.file	59 "/rustc/cc66ad468955717ab92600c770da8c1601a4ff33/library/alloc/src/vec" "spec_from_iter.rs"
	.loc	59 32 0
	.cfi_startproc
	pushq	%rbp
	.cfi_def_cfa_offset 16
	.cfi_offset %rbp, -16
	movq	%rsp, %rbp
	.cfi_def_cfa_register %rbp
	subq	$16, %rsp
	movq	%rdi, %rax
	movq	%rax, -8(%rbp)
Ltmp1022:
	.loc	59 33 9 prologue_end
	callq	__ZN111_$LT$alloc..vec..Vec$LT$T$GT$$u20$as$u20$alloc..vec..spec_from_iter_nested..SpecFromIterNested$LT$T$C$I$GT$$GT$9from_iter17h01909dfda0783873E
Ltmp1023:
	.loc	59 0 9 is_stmt 0
	movq	-8(%rbp), %rax
	.loc	59 34 6 epilogue_begin is_stmt 1
	addq	$16, %rsp
	popq	%rbp
	retq
Ltmp1024:
Lfunc_end121:
	.cfi_endproc

	.p2align	4, 0x90
__ZN98_$LT$alloc..vec..Vec$LT$T$GT$$u20$as$u20$alloc..vec..spec_from_iter..SpecFromIter$LT$T$C$I$GT$$GT$9from_iter17ha685bf9fcbc354eaE:
Lfunc_begin122:
	.loc	59 32 0
	.cfi_startproc
	pushq	%rbp
	.cfi_def_cfa_offset 16
	.cfi_offset %rbp, -16
	movq	%rsp, %rbp
	.cfi_def_cfa_register %rbp
	subq	$16, %rsp
	movq	%rdi, %rax
	movq	%rax, -8(%rbp)
Ltmp1025:
	.loc	59 33 9 prologue_end
	callq	__ZN111_$LT$alloc..vec..Vec$LT$T$GT$$u20$as$u20$alloc..vec..spec_from_iter_nested..SpecFromIterNested$LT$T$C$I$GT$$GT$9from_iter17ha835bec8c9b8ecc0E
Ltmp1026:
	.loc	59 0 9 is_stmt 0
	movq	-8(%rbp), %rax
	.loc	59 34 6 epilogue_begin is_stmt 1
	addq	$16, %rsp
	popq	%rbp
	retq
Ltmp1027:
Lfunc_end122:
	.cfi_endproc

	.p2align	4, 0x90
__ZN9hashbrown3map11make_hasher28_$u7b$$u7b$closure$u7d$$u7d$17h8dc890568bf30b26E:
Lfunc_begin123:
	.loc	18 217 0
	.cfi_startproc
	pushq	%rbp
	.cfi_def_cfa_offset 16
	.cfi_offset %rbp, -16
	movq	%rsp, %rbp
	.cfi_def_cfa_register %rbp
	subq	$32, %rsp
	movq	%rdi, -32(%rbp)
	movq	%rsi, -24(%rbp)
Ltmp1028:
	.loc	18 217 34 prologue_end
	movq	(%rdi), %rdi
	movq	%rdi, -16(%rbp)
	.loc	18 217 48 is_stmt 0
	movq	%rsi, -8(%rbp)
Ltmp1029:
	.loc	18 260 5 is_stmt 1
	callq	__ZN4core4hash11BuildHasher8hash_one17h13f9ac7b09cff390E
Ltmp1030:
	.loc	18 217 55 epilogue_begin
	addq	$32, %rsp
	popq	%rbp
	retq
Ltmp1031:
Lfunc_end123:
	.cfi_endproc

	.p2align	4, 0x90
__ZN9hashbrown3map14equivalent_key28_$u7b$$u7b$closure$u7d$$u7d$17h868e3f0fafce8b1bE:
Lfunc_begin124:
	.loc	18 227 0
	.cfi_startproc
	pushq	%rbp
	.cfi_def_cfa_offset 16
	.cfi_offset %rbp, -16
	movq	%rsp, %rbp
	.cfi_def_cfa_register %rbp
	subq	$16, %rsp
	movq	%rdi, -16(%rbp)
	movq	%rsi, -8(%rbp)
Ltmp1032:
	.loc	18 227 14 prologue_end
	movq	(%rdi), %rdi
	callq	__ZN52_$LT$Q$u20$as$u20$hashbrown..Equivalent$LT$K$GT$$GT$10equivalent17hea153e0843f57d60E
	.loc	18 227 32 is_stmt 0
	andb	$1, %al
	movzbl	%al, %eax
	.loc	18 227 32 epilogue_begin
	addq	$16, %rsp
	popq	%rbp
	retq
Ltmp1033:
Lfunc_end124:
	.cfi_endproc

	.p2align	4, 0x90
__ZN9hashbrown3map28HashMap$LT$K$C$V$C$S$C$A$GT$6insert17hd860b3573c290717E:
Lfunc_begin125:
	.loc	18 1747 0 is_stmt 1
	.cfi_startproc
	.cfi_personality 155, _rust_eh_personality
	.cfi_lsda 16, Lexception28
	pushq	%rbp
	.cfi_def_cfa_offset 16
	.cfi_offset %rbp, -16
	movq	%rsp, %rbp
	.cfi_def_cfa_register %rbp
	subq	$336, %rsp
	movq	%rcx, -320(%rbp)
Ltmp1044:
	movq	%rsi, -312(%rbp)
	movq	%rdi, %rax
	movq	-312(%rbp), %rdi
	movq	%rax, -304(%rbp)
	movq	%rax, -296(%rbp)
Ltmp1045:
	.loc	5 1104 35 prologue_end
	movq	$1, -280(%rbp)
Ltmp1046:
	.loc	5 476 38
	movq	$-1, -272(%rbp)
	movl	%edx, -260(%rbp)
	movq	%rdi, -104(%rbp)
Ltmp1047:
	.loc	18 1748 13
	movb	$1, -114(%rbp)
	movb	$1, -113(%rbp)
	.loc	18 1748 38 is_stmt 0
	addq	$32, %rdi
	movq	%rdi, -96(%rbp)
	leaq	-260(%rbp), %rsi
	.loc	18 1748 58
	movq	%rsi, -88(%rbp)
Ltmp1034:
Ltmp1048:
	.loc	18 260 5 is_stmt 1
	callq	__ZN4core4hash11BuildHasher8hash_one17h13f9ac7b09cff390E
Ltmp1049:
Ltmp1035:
	.loc	18 0 5 is_stmt 0
	movq	%rax, -288(%rbp)
Ltmp1050:
	.loc	18 260 5
	jmp	LBB125_3
Ltmp1051:
LBB125_1:
	.loc	18 1762 5 is_stmt 1
	testb	$1, -113(%rbp)
	jne	LBB125_18
	jmp	LBB125_17
Ltmp1052:
LBB125_2:
Ltmp1040:
	.loc	18 0 5 is_stmt 0
	movq	%rax, %rcx
	movl	%edx, %eax
	movq	%rcx, -80(%rbp)
	movl	%eax, -72(%rbp)
	jmp	LBB125_1
Ltmp1053:
LBB125_3:
	movq	-288(%rbp), %rdx
	movq	-312(%rbp), %rsi
Ltmp1054:
	.loc	18 260 5 is_stmt 1
	movq	%rdx, -64(%rbp)
Ltmp1055:
	.loc	18 1749 45
	movq	%rsi, %rax
	addq	$32, %rax
	movq	%rax, -56(%rbp)
Ltmp1056:
	.loc	18 217 5
	movq	%rax, -256(%rbp)
	leaq	-260(%rbp), %rax
Ltmp1057:
	.loc	18 1752 60
	movq	%rax, -48(%rbp)
Ltmp1058:
	.loc	18 227 5
	movq	%rax, -232(%rbp)
Ltmp1059:
	.loc	18 1750 15
	movq	-232(%rbp), %rcx
	movq	-256(%rbp), %r8
Ltmp1036:
	leaq	-248(%rbp), %rdi
	callq	__ZN9hashbrown3raw21RawTable$LT$T$C$A$GT$24find_or_find_insert_slot17h9b2cda940be87dd4E
Ltmp1037:
	jmp	LBB125_4
Ltmp1060:
LBB125_4:
	.loc	18 1750 9 is_stmt 0
	cmpq	$0, -248(%rbp)
	jne	LBB125_6
Ltmp1061:
	.loc	18 1754 16 is_stmt 1
	movq	-240(%rbp), %rax
	movq	%rax, -328(%rbp)
	movq	%rax, -40(%rbp)
Ltmp1062:
	.loc	17 505 12
	xorl	%eax, %eax
	testb	$1, %al
	jne	LBB125_8
	jmp	LBB125_7
Ltmp1063:
LBB125_6:
	.loc	17 0 12 is_stmt 0
	movq	-288(%rbp), %rsi
	movq	-312(%rbp), %rdi
	movq	-320(%rbp), %r8
	.loc	18 1755 17 is_stmt 1
	movq	-240(%rbp), %rdx
	movq	%rdx, -8(%rbp)
Ltmp1064:
	.loc	18 1757 60
	movb	$0, -114(%rbp)
	movl	-260(%rbp), %eax
	.loc	18 1757 63 is_stmt 0
	movb	$0, -113(%rbp)
	movq	16(%r8), %rcx
	movq	%rcx, -128(%rbp)
	movq	(%r8), %rcx
	movq	8(%r8), %r8
	movq	%r8, -136(%rbp)
	movq	%rcx, -144(%rbp)
	.loc	18 1757 59
	movl	%eax, -176(%rbp)
	movq	-128(%rbp), %rax
	movq	%rax, -152(%rbp)
	movq	-144(%rbp), %rax
	movq	-136(%rbp), %rcx
	movq	%rcx, -160(%rbp)
	movq	%rax, -168(%rbp)
Ltmp1038:
	leaq	-176(%rbp), %rcx
	.loc	18 1757 21
	callq	__ZN9hashbrown3raw21RawTable$LT$T$C$A$GT$14insert_in_slot17hf069ca96c7bc323eE
Ltmp1039:
	jmp	LBB125_14
Ltmp1065:
LBB125_7:
	.loc	18 0 21
	movq	-328(%rbp), %rax
Ltmp1066:
	.loc	17 510 22 is_stmt 1
	movq	%rax, -32(%rbp)
Ltmp1067:
	.loc	23 326 9
	movq	%rax, -24(%rbp)
Ltmp1068:
	.loc	5 1108 12
	xorl	%eax, %eax
	testb	$1, %al
	jne	LBB125_10
	jmp	LBB125_9
Ltmp1069:
LBB125_8:
	.loc	9 466 5
	movq	$8, -16(%rbp)
Ltmp1070:
	.loc	7 606 14
	movl	$8, %eax
	movq	%rax, -112(%rbp)
Ltmp1071:
	.loc	17 505 9
	jmp	LBB125_12
Ltmp1072:
LBB125_9:
	.loc	17 0 9 is_stmt 0
	movq	-328(%rbp), %rax
Ltmp1073:
	.loc	5 483 18 is_stmt 1
	addq	$-32, %rax
	movq	%rax, -112(%rbp)
Ltmp1074:
	.loc	5 1108 9
	jmp	LBB125_11
Ltmp1075:
LBB125_10:
	.loc	5 0 9 is_stmt 0
	movq	-328(%rbp), %rax
	.loc	5 1110 13 is_stmt 1
	movq	%rax, -112(%rbp)
Ltmp1076:
LBB125_11:
	.loc	17 505 9
	jmp	LBB125_12
Ltmp1077:
LBB125_12:
	.loc	17 0 9 is_stmt 0
	movq	-304(%rbp), %rax
	movq	-320(%rbp), %rdx
	.loc	17 742 9 is_stmt 1
	movq	-112(%rbp), %rcx
Ltmp1078:
	.loc	18 1754 80
	movq	(%rdx), %rsi
	movq	%rsi, -200(%rbp)
	movq	8(%rdx), %rsi
	movq	%rsi, -192(%rbp)
	movq	16(%rdx), %rdx
	movq	%rdx, -184(%rbp)
Ltmp1079:
	.loc	7 1180 9
	movq	8(%rcx), %rdx
	movq	%rdx, -224(%rbp)
	movq	16(%rcx), %rdx
	movq	%rdx, -216(%rbp)
	movq	24(%rcx), %rdx
	movq	%rdx, -208(%rbp)
Ltmp1080:
	.loc	7 1378 9
	movq	-200(%rbp), %rdx
	movq	%rdx, 8(%rcx)
	movq	-192(%rbp), %rdx
	movq	%rdx, 16(%rcx)
	movq	-184(%rbp), %rdx
	movq	%rdx, 24(%rcx)
Ltmp1081:
	.loc	18 1754 27
	movq	-224(%rbp), %rcx
	movq	%rcx, (%rax)
	movq	-216(%rbp), %rcx
	movq	%rcx, 8(%rax)
	movq	-208(%rbp), %rcx
	movq	%rcx, 16(%rax)
Ltmp1082:
LBB125_13:
	.loc	18 1762 5
	testb	$1, -114(%rbp)
	jne	LBB125_16
	jmp	LBB125_15
Ltmp1083:
LBB125_14:
	.loc	18 0 5 is_stmt 0
	movq	-304(%rbp), %rax
Ltmp1084:
	.loc	18 1759 17 is_stmt 1
	movq	$0, (%rax)
Ltmp1085:
	.loc	18 1760 13
	jmp	LBB125_13
Ltmp1086:
LBB125_15:
	.loc	18 0 13 is_stmt 0
	movq	-296(%rbp), %rax
	.loc	18 1762 6 epilogue_begin is_stmt 1
	addq	$336, %rsp
	popq	%rbp
	retq
Ltmp1087:
LBB125_16:
	.loc	18 1762 5 is_stmt 0
	jmp	LBB125_15
Ltmp1088:
LBB125_17:
	testb	$1, -114(%rbp)
	jne	LBB125_21
	jmp	LBB125_20
Ltmp1089:
LBB125_18:
Ltmp1041:
	.loc	18 0 5
	movq	-320(%rbp), %rdi
	.loc	18 1762 5
	callq	__ZN4core3ptr61drop_in_place$LT$sigalign..algorithm..anchor..AnchorTable$GT$17hef8bacf63aa8f3a7E
Ltmp1042:
	jmp	LBB125_17
Ltmp1090:
LBB125_19:
Ltmp1043:
	.loc	18 1747 5 is_stmt 1
	callq	__ZN4core9panicking19panic_cannot_unwind17h0477e80cce5de375E
Ltmp1091:
LBB125_20:
	movq	-80(%rbp), %rdi
	callq	__Unwind_Resume
Ltmp1092:
LBB125_21:
	.loc	18 1762 5
	jmp	LBB125_20
Ltmp1093:
Lfunc_end125:
	.cfi_endproc
	.section	__TEXT,__gcc_except_tab
	.p2align	2, 0x0
GCC_except_table125:
Lexception28:
	.byte	255
	.byte	155
	.uleb128 Lttbase15-Lttbaseref15
Lttbaseref15:
	.byte	1
	.uleb128 Lcst_end28-Lcst_begin28
Lcst_begin28:
	.uleb128 Ltmp1034-Lfunc_begin125
	.uleb128 Ltmp1039-Ltmp1034
	.uleb128 Ltmp1040-Lfunc_begin125
	.byte	0
	.uleb128 Ltmp1041-Lfunc_begin125
	.uleb128 Ltmp1042-Ltmp1041
	.uleb128 Ltmp1043-Lfunc_begin125
	.byte	1
	.uleb128 Ltmp1042-Lfunc_begin125
	.uleb128 Lfunc_end125-Ltmp1042
	.byte	0
	.byte	0
Lcst_end28:
	.byte	127
	.byte	0
	.p2align	2, 0x0
Lttbase15:
	.byte	0
	.p2align	2, 0x0

	.section	__TEXT,__text,regular,pure_instructions
	.p2align	4, 0x90
__ZN9hashbrown3map28HashMap$LT$K$C$V$C$S$C$A$GT$7get_mut17h4d0de5c87e2e26d2E:
Lfunc_begin126:
	.loc	18 1445 0
	.cfi_startproc
	pushq	%rbp
	.cfi_def_cfa_offset 16
	.cfi_offset %rbp, -16
	movq	%rsp, %rbp
	.cfi_def_cfa_register %rbp
	subq	$80, %rsp
	movq	%rdi, -72(%rbp)
	movq	%rsi, -64(%rbp)
	movq	%rdi, -32(%rbp)
	movq	%rsi, -24(%rbp)
Ltmp1094:
	.loc	18 1461 12 prologue_end
	cmpq	$0, 24(%rdi)
	jne	LBB126_2
	.loc	18 1462 13
	movq	$0, -48(%rbp)
	.loc	18 1461 9
	jmp	LBB126_3
LBB126_2:
	.loc	18 0 9 is_stmt 0
	movq	-72(%rbp), %rdi
	movq	-64(%rbp), %rsi
	.loc	18 1464 42 is_stmt 1
	addq	$32, %rdi
	movq	%rdi, -16(%rbp)
Ltmp1095:
	.loc	18 260 5
	callq	__ZN4core4hash11BuildHasher8hash_one17h13f9ac7b09cff390E
	movq	-72(%rbp), %rdi
	movq	%rax, %rsi
	movq	-64(%rbp), %rax
	movq	%rsi, -8(%rbp)
Ltmp1096:
	.loc	18 227 5
	movq	%rax, -40(%rbp)
Ltmp1097:
	.loc	18 1465 13
	movq	-40(%rbp), %rdx
	callq	__ZN9hashbrown3raw21RawTable$LT$T$C$A$GT$7get_mut17h94ad00acb1e52ff1E
	movq	%rax, -48(%rbp)
Ltmp1098:
LBB126_3:
	.loc	18 1450 15
	movq	-48(%rbp), %rdx
	movl	$1, %eax
	xorl	%ecx, %ecx
	cmpq	$0, %rdx
	cmoveq	%rcx, %rax
	.loc	18 1450 9 is_stmt 0
	cmpq	$0, %rax
	jne	LBB126_5
	.loc	18 1452 21 is_stmt 1
	movq	$0, -56(%rbp)
	jmp	LBB126_6
LBB126_5:
	.loc	18 1451 27
	movq	-48(%rbp), %rax
Ltmp1099:
	.loc	18 1451 47 is_stmt 0
	addq	$8, %rax
	.loc	18 1451 42
	movq	%rax, -56(%rbp)
Ltmp1100:
LBB126_6:
	.loc	18 1454 6 is_stmt 1
	movq	-56(%rbp), %rax
	.loc	18 1454 6 epilogue_begin is_stmt 0
	addq	$80, %rsp
	popq	%rbp
	retq
Ltmp1101:
Lfunc_end126:
	.cfi_endproc

	.p2align	4, 0x90
__ZN9hashbrown3raw15Bucket$LT$T$GT$15from_base_index17hfca42c7a619dd7c4E:
Lfunc_begin127:
	.loc	17 346 0 is_stmt 1
	.cfi_startproc
	pushq	%rbp
	.cfi_def_cfa_offset 16
	.cfi_offset %rbp, -16
	movq	%rsp, %rbp
	.cfi_def_cfa_register %rbp
	movq	%rdi, -88(%rbp)
	movq	%rsi, -80(%rbp)
	movq	%rdi, -48(%rbp)
	movq	%rsi, -40(%rbp)
Ltmp1102:
	.loc	17 367 22 prologue_end
	xorl	%eax, %eax
	testb	$1, %al
	jne	LBB127_2
	.loc	17 0 22 is_stmt 0
	movq	-88(%rbp), %rax
Ltmp1103:
	.loc	23 326 9 is_stmt 1
	movq	%rax, -32(%rbp)
Ltmp1104:
	.loc	5 1108 12
	xorl	%eax, %eax
	testb	$1, %al
	jne	LBB127_4
	jmp	LBB127_3
Ltmp1105:
LBB127_2:
	.loc	5 0 12 is_stmt 0
	movq	-80(%rbp), %rax
	.loc	17 371 25 is_stmt 1
	addq	$1, %rax
	movq	%rax, -16(%rbp)
Ltmp1106:
	.loc	7 606 14
	movq	%rax, -64(%rbp)
Ltmp1107:
	.loc	17 367 19
	jmp	LBB127_6
LBB127_3:
	.loc	17 0 19 is_stmt 0
	movq	-88(%rbp), %rax
	movq	-80(%rbp), %rdx
Ltmp1108:
	.loc	5 1115 34 is_stmt 1
	xorl	%ecx, %ecx
	subq	%rdx, %rcx
	movq	%rcx, -24(%rbp)
Ltmp1109:
	.loc	5 483 18
	shlq	$5, %rcx
	addq	%rcx, %rax
	movq	%rax, -64(%rbp)
Ltmp1110:
	.loc	5 1108 9
	jmp	LBB127_5
LBB127_4:
	.loc	5 0 9 is_stmt 0
	movq	-88(%rbp), %rax
	.loc	5 1110 13 is_stmt 1
	movq	%rax, -64(%rbp)
Ltmp1111:
LBB127_5:
	.loc	17 367 19
	jmp	LBB127_6
LBB127_6:
Ltmp1112:
	.loc	17 376 41
	movq	-64(%rbp), %rax
	movq	%rax, -8(%rbp)
Ltmp1113:
	.loc	23 201 13
	movq	%rax, -56(%rbp)
Ltmp1114:
	.loc	17 375 9
	movq	-56(%rbp), %rax
	movq	%rax, -72(%rbp)
Ltmp1115:
	.loc	17 378 6
	movq	-72(%rbp), %rax
	.loc	17 378 6 epilogue_begin is_stmt 0
	popq	%rbp
	retq
Ltmp1116:
Lfunc_end127:
	.cfi_endproc

	.p2align	4, 0x90
__ZN9hashbrown3raw15Bucket$LT$T$GT$4drop17h29ddd782d4f9e3b3E:
Lfunc_begin128:
	.loc	17 580 0 is_stmt 1
	.cfi_startproc
	pushq	%rbp
	.cfi_def_cfa_offset 16
	.cfi_offset %rbp, -16
	movq	%rsp, %rbp
	.cfi_def_cfa_register %rbp
	subq	$80, %rsp
	movq	%rdi, -64(%rbp)
Ltmp1117:
	.loc	5 1104 35 prologue_end
	movq	$1, -56(%rbp)
Ltmp1118:
	.loc	5 476 38
	movq	$-1, -48(%rbp)
	movq	%rdi, -32(%rbp)
Ltmp1119:
	.loc	17 505 12
	xorl	%eax, %eax
	testb	$1, %al
	jne	LBB128_2
	.loc	17 0 12 is_stmt 0
	movq	-64(%rbp), %rax
	.loc	17 510 22 is_stmt 1
	movq	(%rax), %rax
	movq	%rax, -72(%rbp)
	movq	%rax, -24(%rbp)
Ltmp1120:
	.loc	23 326 9
	movq	%rax, -16(%rbp)
Ltmp1121:
	.loc	5 1108 12
	xorl	%eax, %eax
	testb	$1, %al
	jne	LBB128_4
	jmp	LBB128_3
Ltmp1122:
LBB128_2:
	.loc	9 466 5
	movq	$8, -8(%rbp)
Ltmp1123:
	.loc	7 606 14
	movl	$8, %eax
	movq	%rax, -40(%rbp)
Ltmp1124:
	.loc	17 505 9
	jmp	LBB128_6
LBB128_3:
	.loc	17 0 9 is_stmt 0
	movq	-72(%rbp), %rax
Ltmp1125:
	.loc	5 483 18 is_stmt 1
	addq	$-32, %rax
	movq	%rax, -40(%rbp)
Ltmp1126:
	.loc	5 1108 9
	jmp	LBB128_5
LBB128_4:
	.loc	5 0 9 is_stmt 0
	movq	-72(%rbp), %rax
	.loc	5 1110 13 is_stmt 1
	movq	%rax, -40(%rbp)
Ltmp1127:
LBB128_5:
	.loc	17 505 9
	jmp	LBB128_6
Ltmp1128:
LBB128_6:
	.loc	5 1444 18
	movq	-40(%rbp), %rdi
	callq	__ZN4core3ptr75drop_in_place$LT$$LP$u32$C$sigalign..algorithm..anchor..AnchorTable$RP$$GT$17he7fb4dc32d404540E
Ltmp1129:
	.loc	17 582 6 epilogue_begin
	addq	$80, %rsp
	popq	%rbp
	retq
Ltmp1130:
Lfunc_end128:
	.cfi_endproc

	.p2align	4, 0x90
__ZN9hashbrown3raw15Bucket$LT$T$GT$6next_n17h497171d44c081be6E:
Lfunc_begin129:
	.loc	17 552 0
	.cfi_startproc
	pushq	%rbp
	.cfi_def_cfa_offset 16
	.cfi_offset %rbp, -16
	movq	%rsp, %rbp
	.cfi_def_cfa_register %rbp
	movq	%rdi, -104(%rbp)
	movq	%rsi, -96(%rbp)
	movq	%rdi, -64(%rbp)
	movq	%rsi, -56(%rbp)
Ltmp1131:
	.loc	17 553 22 prologue_end
	xorl	%eax, %eax
	testb	$1, %al
	jne	LBB129_2
	.loc	17 0 22 is_stmt 0
	movq	-104(%rbp), %rax
	.loc	17 557 13 is_stmt 1
	movq	(%rax), %rax
	movq	%rax, -112(%rbp)
	movq	%rax, -48(%rbp)
Ltmp1132:
	.loc	23 326 9
	movq	%rax, -40(%rbp)
Ltmp1133:
	.loc	5 1108 12
	xorl	%eax, %eax
	testb	$1, %al
	jne	LBB129_4
	jmp	LBB129_3
Ltmp1134:
LBB129_2:
	.loc	5 0 12 is_stmt 0
	movq	-96(%rbp), %rcx
	movq	-104(%rbp), %rax
	.loc	17 555 25 is_stmt 1
	movq	(%rax), %rax
	movq	%rax, -24(%rbp)
	addq	%rcx, %rax
	movq	%rax, -16(%rbp)
Ltmp1135:
	.loc	7 606 14
	movq	%rax, -80(%rbp)
Ltmp1136:
	.loc	17 553 19
	jmp	LBB129_6
LBB129_3:
	.loc	17 0 19 is_stmt 0
	movq	-112(%rbp), %rax
	movq	-96(%rbp), %rdx
Ltmp1137:
	.loc	5 1115 34 is_stmt 1
	xorl	%ecx, %ecx
	subq	%rdx, %rcx
	movq	%rcx, -32(%rbp)
Ltmp1138:
	.loc	5 483 18
	shlq	$5, %rcx
	addq	%rcx, %rax
	movq	%rax, -80(%rbp)
Ltmp1139:
	.loc	5 1108 9
	jmp	LBB129_5
LBB129_4:
	.loc	5 0 9 is_stmt 0
	movq	-112(%rbp), %rax
	.loc	5 1110 13 is_stmt 1
	movq	%rax, -80(%rbp)
Ltmp1140:
LBB129_5:
	.loc	17 553 19
	jmp	LBB129_6
LBB129_6:
Ltmp1141:
	.loc	17 560 41
	movq	-80(%rbp), %rax
	movq	%rax, -8(%rbp)
Ltmp1142:
	.loc	23 201 13
	movq	%rax, -72(%rbp)
Ltmp1143:
	.loc	17 559 9
	movq	-72(%rbp), %rax
	movq	%rax, -88(%rbp)
Ltmp1144:
	.loc	17 562 6
	movq	-88(%rbp), %rax
	.loc	17 562 6 epilogue_begin is_stmt 0
	popq	%rbp
	retq
Ltmp1145:
Lfunc_end129:
	.cfi_endproc

	.p2align	4, 0x90
__ZN9hashbrown3raw21RawIterRange$LT$T$GT$3new17hfc360edd33abb208E:
Lfunc_begin130:
	.loc	17 2754 0 is_stmt 1
	.cfi_startproc
	pushq	%rbp
	.cfi_def_cfa_offset 16
	.cfi_offset %rbp, -16
	movq	%rsp, %rbp
	.cfi_def_cfa_register %rbp
	subq	$224, %rsp
	movq	%rdx, -216(%rbp)
	movq	%rsi, -224(%rbp)
	movq	%rdi, -200(%rbp)
	movq	%rdi, -192(%rbp)
Ltmp1146:
	.loc	17 2755 9 prologue_end
	leaq	L___unnamed_17(%rip), %rax
	movq	%rax, -184(%rbp)
Ltmp1147:
	.loc	17 2755 9 is_stmt 0
	movb	$1, -169(%rbp)
Ltmp1148:
	.loc	17 2756 9 is_stmt 1
	leaq	L___unnamed_17(%rip), %rax
	movq	%rax, -168(%rbp)
Ltmp1149:
	.loc	17 2756 9 is_stmt 0
	movb	$0, -153(%rbp)
Ltmp1150:
	.file	60 "/Users/runner/.cargo/registry/src/index.crates.io-6f17d22bba15001f/hashbrown-0.14.0/src/raw" "sse2.rs"
	.loc	60 62 9 is_stmt 1
	leaq	L___unnamed_17(%rip), %rax
	movq	%rax, -152(%rbp)
Ltmp1151:
	.loc	60 62 9 is_stmt 0
	movb	$0, -137(%rbp)
Ltmp1152:
	.loc	3 918 35 is_stmt 1
	movq	$16, -136(%rbp)
	movq	%rsi, -104(%rbp)
	movq	%rdx, -96(%rbp)
	movq	%rcx, -88(%rbp)
Ltmp1153:
	.loc	17 2757 28
	movq	%rcx, -80(%rbp)
Ltmp1154:
	.loc	3 923 18
	movq	%rsi, %rax
	addq	%rcx, %rax
	movq	%rax, -208(%rbp)
	movq	%rax, -72(%rbp)
Ltmp1155:
	.loc	60 63 15
	leaq	-64(%rbp), %rdi
	callq	__ZN4core9core_arch3x864sse214_mm_load_si12817hd6016d24589514feE
	movdqa	-64(%rbp), %xmm0
	.loc	60 63 9 is_stmt 0
	movdqa	%xmm0, -128(%rbp)
Ltmp1156:
	.loc	60 121 9 is_stmt 1
	movdqa	-128(%rbp), %xmm0
	movdqa	%xmm0, -48(%rbp)
Ltmp1157:
	.loc	60 114 21
	movdqa	%xmm0, -32(%rbp)
	leaq	-32(%rbp), %rdi
	callq	__ZN4core9core_arch3x864sse217_mm_movemask_epi817h8809dedc070bc214E
	movq	-224(%rbp), %rcx
	movq	-216(%rbp), %rdx
	movq	-208(%rbp), %rsi
	movq	-200(%rbp), %rdi
	movl	%eax, %r8d
	movq	-192(%rbp), %rax
	movw	%r8w, -12(%rbp)
Ltmp1158:
	.loc	56 31 17
	xorw	$-1, %r8w
	movw	%r8w, -10(%rbp)
Ltmp1159:
	.loc	3 923 18
	addq	$16, %rcx
	movq	%rcx, -8(%rbp)
Ltmp1160:
	.loc	56 99 29
	andw	$-1, %r8w
	.loc	56 99 21 is_stmt 0
	movw	%r8w, -106(%rbp)
	.loc	56 99 9
	movw	-106(%rbp), %r8w
	movw	%r8w, -108(%rbp)
Ltmp1161:
	.loc	17 2763 9 is_stmt 1
	movw	-108(%rbp), %r8w
	movw	%r8w, 24(%rdi)
	movq	%rdx, (%rdi)
	movq	%rcx, 8(%rdi)
	movq	%rsi, 16(%rdi)
Ltmp1162:
	.loc	17 2769 6 epilogue_begin
	addq	$224, %rsp
	popq	%rbp
	retq
Ltmp1163:
Lfunc_end130:
	.cfi_endproc

	.p2align	4, 0x90
__ZN9hashbrown3raw21RawIterRange$LT$T$GT$9next_impl17hbea1a2addb4f38d4E:
Lfunc_begin131:
	.loc	17 2819 0
	.cfi_startproc
	pushq	%rbp
	.cfi_def_cfa_offset 16
	.cfi_offset %rbp, -16
	movq	%rsp, %rbp
	.cfi_def_cfa_register %rbp
	subq	$176, %rsp
	movq	%rdi, -176(%rbp)
Ltmp1164:
	.loc	60 62 9 prologue_end
	leaq	L___unnamed_17(%rip), %rax
	movq	%rax, -168(%rbp)
Ltmp1165:
	.loc	60 62 9 is_stmt 0
	movb	$0, -153(%rbp)
Ltmp1166:
	.loc	3 918 35 is_stmt 1
	movq	$16, -152(%rbp)
	movq	%rdi, -88(%rbp)
Ltmp1167:
LBB131_1:
	.loc	3 0 35 is_stmt 0
	movq	-176(%rbp), %rdi
Ltmp1168:
	.loc	17 2821 34 is_stmt 1
	addq	$24, %rdi
	callq	__ZN95_$LT$hashbrown..raw..bitmask..BitMaskIter$u20$as$u20$core..iter..traits..iterator..Iterator$GT$4next17hd99a669776665727E
	movq	%rdx, -128(%rbp)
	movq	%rax, -136(%rbp)
	.loc	17 2821 20 is_stmt 0
	cmpq	$1, -136(%rbp)
	jne	LBB131_3
	.loc	17 0 20
	movq	-176(%rbp), %rdi
	.loc	17 2821 25
	movq	-128(%rbp), %rsi
	movq	%rsi, -80(%rbp)
	.loc	17 2822 29 is_stmt 1
	callq	__ZN9hashbrown3raw15Bucket$LT$T$GT$6next_n17h497171d44c081be6E
	.loc	17 2822 24 is_stmt 0
	movq	%rax, -144(%rbp)
Ltmp1169:
	.file	61 "/Users/khun/Dev/Repos/sigalign" "debug/src/main.rs"
	.loc	61 1 1 is_stmt 1
	jmp	LBB131_4
LBB131_3:
	.loc	17 2825 16
	xorl	%eax, %eax
	testb	$1, %al
	jne	LBB131_6
	jmp	LBB131_5
LBB131_4:
	.loc	17 2838 6
	movq	-144(%rbp), %rax
	.loc	17 2838 6 epilogue_begin is_stmt 0
	addq	$176, %rsp
	popq	%rbp
	retq
LBB131_5:
	.loc	17 2825 16 is_stmt 1
	movb	$0, -115(%rbp)
	jmp	LBB131_7
LBB131_6:
	.loc	17 0 16 is_stmt 0
	movq	-176(%rbp), %rcx
	.loc	17 2825 38
	movq	8(%rcx), %rax
	cmpq	16(%rcx), %rax
	setae	%al
	.loc	17 2825 16
	andb	$1, %al
	movb	%al, -115(%rbp)
LBB131_7:
	testb	$1, -115(%rbp)
	jne	LBB131_9
	.loc	17 0 16
	movq	-176(%rbp), %rax
	.loc	17 2834 54 is_stmt 1
	movq	8(%rax), %rsi
	movq	%rsi, -72(%rbp)
Ltmp1170:
	.loc	60 63 15
	leaq	-64(%rbp), %rdi
	callq	__ZN4core9core_arch3x864sse214_mm_load_si12817hd6016d24589514feE
	movdqa	-64(%rbp), %xmm0
	.loc	60 63 9 is_stmt 0
	movdqa	%xmm0, -112(%rbp)
Ltmp1171:
	.loc	60 121 9 is_stmt 1
	movdqa	-112(%rbp), %xmm0
	movdqa	%xmm0, -48(%rbp)
Ltmp1172:
	.loc	60 114 21
	movdqa	%xmm0, -32(%rbp)
	leaq	-32(%rbp), %rdi
	callq	__ZN4core9core_arch3x864sse217_mm_movemask_epi817h8809dedc070bc214E
	movq	-176(%rbp), %rdi
	movw	%ax, -12(%rbp)
Ltmp1173:
	.loc	56 31 17
	xorw	$-1, %ax
	movw	%ax, -10(%rbp)
Ltmp1174:
	.loc	56 99 29
	andw	$-1, %ax
	.loc	56 99 21 is_stmt 0
	movw	%ax, -90(%rbp)
	.loc	56 99 9
	movw	-90(%rbp), %ax
	movw	%ax, -114(%rbp)
Ltmp1175:
	.loc	17 2834 13 is_stmt 1
	movw	-114(%rbp), %ax
	movw	%ax, 24(%rdi)
	.loc	17 2835 25
	movl	$16, %esi
	callq	__ZN9hashbrown3raw15Bucket$LT$T$GT$6next_n17h497171d44c081be6E
	movq	%rax, %rcx
	movq	-176(%rbp), %rax
	.loc	17 2835 13 is_stmt 0
	movq	%rcx, (%rax)
	.loc	17 2836 30 is_stmt 1
	movq	8(%rax), %rcx
	movq	%rcx, -8(%rbp)
Ltmp1176:
	.loc	3 923 18
	addq	$16, %rcx
Ltmp1177:
	.loc	17 2836 13
	movq	%rcx, 8(%rax)
	.loc	17 2820 9
	jmp	LBB131_1
LBB131_9:
	.loc	17 2826 24
	movq	$0, -144(%rbp)
	.loc	61 1 1
	jmp	LBB131_4
Ltmp1178:
Lfunc_end131:
	.cfi_endproc

	.p2align	4, 0x90
__ZN9hashbrown3raw21RawTable$LT$T$C$A$GT$12free_buckets17hf72aa60b2c5db81fE:
Lfunc_begin132:
	.loc	17 914 0
	.cfi_startproc
	pushq	%rbp
	.cfi_def_cfa_offset 16
	.cfi_offset %rbp, -16
	movq	%rsp, %rbp
	.cfi_def_cfa_register %rbp
	subq	$80, %rsp
	movq	%rdi, %rsi
	movq	%rsi, -80(%rbp)
Ltmp1179:
	.loc	17 2353 39 prologue_end
	movq	$32, -72(%rbp)
	movq	$16, -64(%rbp)
	movq	%rsi, -32(%rbp)
	.loc	17 2354 29
	leaq	-56(%rbp), %rdi
	movl	$32, %edx
	movl	$16, %ecx
	callq	__ZN9hashbrown3raw22RawTableInner$LT$A$GT$15allocation_info17h087fd737a6882205E
	movq	-80(%rbp), %rdi
	.loc	17 2354 14 is_stmt 0
	movq	-56(%rbp), %rsi
	movq	%rsi, -24(%rbp)
	.loc	17 2354 19
	movq	-48(%rbp), %rdx
	movq	-40(%rbp), %rcx
	movq	%rdx, -16(%rbp)
	movq	%rcx, -8(%rbp)
Ltmp1180:
	.loc	17 2355 9 is_stmt 1
	callq	__ZN63_$LT$alloc..alloc..Global$u20$as$u20$core..alloc..Allocator$GT$10deallocate17h5ec3c1fade8b9919E
Ltmp1181:
	.loc	17 916 6 epilogue_begin
	addq	$80, %rsp
	popq	%rbp
	retq
Ltmp1182:
Lfunc_end132:
	.cfi_endproc

	.p2align	4, 0x90
__ZN9hashbrown3raw21RawTable$LT$T$C$A$GT$13drop_elements17h69aaa7043db3ff69E:
Lfunc_begin133:
	.loc	17 1035 0
	.cfi_startproc
	pushq	%rbp
	.cfi_def_cfa_offset 16
	.cfi_offset %rbp, -16
	movq	%rsp, %rbp
	.cfi_def_cfa_register %rbp
	subq	$160, %rsp
	movq	%rdi, -160(%rbp)
	movq	%rdi, -8(%rbp)
Ltmp1183:
	.loc	17 1036 12 prologue_end
	movb	$1, %al
	testb	$1, %al
	jne	LBB133_2
	movb	$0, -145(%rbp)
	jmp	LBB133_3
LBB133_2:
	.loc	17 0 12 is_stmt 0
	movq	-160(%rbp), %rax
Ltmp1184:
	.loc	17 1401 9 is_stmt 1
	cmpq	$0, 24(%rax)
	sete	%al
Ltmp1185:
	.loc	17 1036 37
	xorb	$-1, %al
	.loc	17 1036 12 is_stmt 0
	andb	$1, %al
	movb	%al, -145(%rbp)
LBB133_3:
	testb	$1, -145(%rbp)
	jne	LBB133_5
LBB133_4:
	.loc	17 1041 6 epilogue_begin is_stmt 1
	addq	$160, %rsp
	popq	%rbp
	retq
LBB133_5:
	.loc	17 0 6 is_stmt 0
	movq	-160(%rbp), %rsi
	.loc	17 1037 25 is_stmt 1
	leaq	-104(%rbp), %rdi
	callq	__ZN9hashbrown3raw21RawTable$LT$T$C$A$GT$4iter17h3b79bab12248abe8E
Ltmp1186:
	.loc	45 278 9
	leaq	-144(%rbp), %rdi
	leaq	-104(%rbp), %rsi
	movl	$40, %edx
	callq	_memcpy
Ltmp1187:
	.loc	17 1037 25
	leaq	-64(%rbp), %rdi
	leaq	-144(%rbp), %rsi
	movl	$40, %edx
	callq	_memcpy
LBB133_6:
Ltmp1188:
	.loc	17 1037 25 is_stmt 0
	leaq	-64(%rbp), %rdi
	callq	__ZN91_$LT$hashbrown..raw..RawIter$LT$T$GT$$u20$as$u20$core..iter..traits..iterator..Iterator$GT$4next17h56a0e33a79339bf9E
	movq	%rax, -24(%rbp)
	movq	-24(%rbp), %rdx
	movl	$1, %eax
	xorl	%ecx, %ecx
	cmpq	$0, %rdx
	cmoveq	%rcx, %rax
	cmpq	$0, %rax
	jne	LBB133_8
Ltmp1189:
	.loc	17 1036 9 is_stmt 1
	jmp	LBB133_4
LBB133_8:
Ltmp1190:
	.loc	17 1037 17
	movq	-24(%rbp), %rax
	movq	%rax, -16(%rbp)
Ltmp1191:
	.loc	17 1038 17
	leaq	-16(%rbp), %rdi
	callq	__ZN9hashbrown3raw15Bucket$LT$T$GT$4drop17h29ddd782d4f9e3b3E
Ltmp1192:
	.loc	17 1037 13
	jmp	LBB133_6
Ltmp1193:
Lfunc_end133:
	.cfi_endproc

	.p2align	4, 0x90
__ZN9hashbrown3raw21RawTable$LT$T$C$A$GT$14insert_in_slot17hf069ca96c7bc323eE:
Lfunc_begin134:
	.loc	17 1283 0
	.cfi_startproc
	.cfi_personality 155, _rust_eh_personality
	.cfi_lsda 16, Lexception29
	pushq	%rbp
	.cfi_def_cfa_offset 16
	.cfi_offset %rbp, -16
	movq	%rsp, %rbp
	.cfi_def_cfa_register %rbp
	subq	$336, %rsp
	movq	%rdx, -336(%rbp)
	movq	%rsi, %rax
	movq	-336(%rbp), %rsi
	movq	%rdi, -328(%rbp)
	movq	%rsi, -320(%rbp)
	movq	%rcx, -312(%rbp)
Ltmp1200:
	.loc	4 1267 5 prologue_end
	movq	$16, -296(%rbp)
Ltmp1201:
	.loc	17 953 9
	leaq	L___unnamed_17(%rip), %rcx
Ltmp1202:
	movq	%rcx, -288(%rbp)
Ltmp1203:
	.loc	17 953 9 is_stmt 0
	movb	$1, -273(%rbp)
Ltmp1204:
	.loc	5 1104 35 is_stmt 1
	movq	$1, -272(%rbp)
Ltmp1205:
	.loc	5 476 38
	movq	$-1, -264(%rbp)
	movq	%rdi, -208(%rbp)
	movq	%rax, -200(%rbp)
	movq	%rsi, -192(%rbp)
Ltmp1206:
	.loc	17 1284 41
	movq	%rsi, -184(%rbp)
Ltmp1207:
	.loc	17 2116 9
	movq	(%rdi), %rcx
	movq	%rcx, -176(%rbp)
Ltmp1208:
	.loc	23 326 9
	movq	%rcx, -168(%rbp)
Ltmp1209:
	.loc	17 1284 24
	movzbl	(%rcx,%rsi), %ecx
	movb	%cl, %dl
	movb	%dl, -153(%rbp)
Ltmp1210:
	.loc	17 1285 42
	movq	%rsi, -152(%rbp)
Ltmp1211:
	.file	62 "/rustc/cc66ad468955717ab92600c770da8c1601a4ff33/library/core/src/convert" "num.rs"
	.loc	62 90 1
	andl	$1, %ecx
	movl	%ecx, %edx
	movb	%dl, %cl
Ltmp1212:
	.loc	17 118 5
	movb	%cl, -137(%rbp)
Ltmp1213:
	.loc	17 1953 9
	movq	16(%rdi), %rcx
	subq	%rdx, %rcx
	movq	%rcx, 16(%rdi)
Ltmp1214:
	.loc	17 144 16
	shrq	$57, %rax
	movq	%rax, -136(%rbp)
Ltmp1215:
	.loc	17 145 5
	movb	%al, %dl
	movb	%dl, -121(%rbp)
Ltmp1216:
	.loc	4 1267 5
	movq	%rsi, %rcx
	addq	$-16, %rcx
Ltmp1217:
	.loc	17 2082 60
	movq	8(%rdi), %rax
	.loc	17 2082 22 is_stmt 0
	andq	%rax, %rcx
	movq	%rcx, %rax
	addq	$16, %rax
	movq	%rax, -120(%rbp)
Ltmp1218:
	.loc	17 2116 9 is_stmt 1
	movq	(%rdi), %rax
	movq	%rax, -112(%rbp)
Ltmp1219:
	.loc	23 326 9
	movq	%rax, -104(%rbp)
Ltmp1220:
	.loc	17 2085 9
	movb	%dl, (%rax,%rsi)
Ltmp1221:
	.loc	17 2116 9
	movq	(%rdi), %rax
	movq	%rax, -96(%rbp)
Ltmp1222:
	.loc	23 326 9
	movq	%rax, -88(%rbp)
Ltmp1223:
	.loc	17 2086 9
	movb	%dl, 16(%rax,%rcx)
Ltmp1224:
	.loc	17 1955 9
	movq	24(%rdi), %rax
	incq	%rax
	movq	%rax, 24(%rdi)
Ltmp1225:
	.loc	17 1287 34
	movq	%rsi, -80(%rbp)
Ltmp1226:
	.loc	17 921 32
	movq	(%rdi), %rax
	movq	%rax, -72(%rbp)
Ltmp1227:
	.loc	23 326 9
	movq	%rax, -64(%rbp)
Ltmp1228:
	.loc	5 61 9
	movq	%rax, -56(%rbp)
Ltmp1229:
	.loc	23 201 13
	movq	%rax, -224(%rbp)
Ltmp1230:
	.loc	17 955 9
	movq	-224(%rbp), %rdi
Ltmp1194:
	callq	__ZN9hashbrown3raw15Bucket$LT$T$GT$15from_base_index17hfca42c7a619dd7c4E
Ltmp1195:
	movq	%rax, -304(%rbp)
Ltmp1231:
	jmp	LBB134_3
Ltmp1232:
LBB134_1:
	.loc	17 1290 5
	movb	$1, %al
	testb	$1, %al
	jne	LBB134_11
	jmp	LBB134_10
Ltmp1233:
LBB134_2:
Ltmp1196:
	.loc	17 0 5 is_stmt 0
	movq	%rax, %rcx
	movl	%edx, %eax
	movq	%rcx, -48(%rbp)
	movl	%eax, -40(%rbp)
	jmp	LBB134_1
Ltmp1234:
LBB134_3:
	movq	-312(%rbp), %rax
	movq	-304(%rbp), %rcx
Ltmp1235:
	.loc	17 955 9 is_stmt 1
	movq	%rcx, -32(%rbp)
Ltmp1236:
	.loc	17 1288 22
	movq	(%rax), %rcx
	movq	%rcx, -256(%rbp)
	movq	8(%rax), %rcx
	movq	%rcx, -248(%rbp)
	movq	16(%rax), %rcx
	movq	%rcx, -240(%rbp)
	movq	24(%rax), %rax
	movq	%rax, -232(%rbp)
Ltmp1237:
	.loc	17 505 12
	xorl	%eax, %eax
	testb	$1, %al
	jne	LBB134_5
Ltmp1238:
	.loc	17 0 12 is_stmt 0
	movq	-304(%rbp), %rax
	.loc	17 510 22 is_stmt 1
	movq	%rax, -24(%rbp)
Ltmp1239:
	.loc	23 326 9
	movq	%rax, -16(%rbp)
Ltmp1240:
	.loc	5 1108 12
	xorl	%eax, %eax
	testb	$1, %al
	jne	LBB134_7
	jmp	LBB134_6
Ltmp1241:
LBB134_5:
	.loc	9 466 5
	movq	$8, -8(%rbp)
Ltmp1242:
	.loc	7 606 14
	movl	$8, %eax
	movq	%rax, -216(%rbp)
Ltmp1243:
	.loc	17 505 9
	jmp	LBB134_9
Ltmp1244:
LBB134_6:
	.loc	17 0 9 is_stmt 0
	movq	-304(%rbp), %rax
Ltmp1245:
	.loc	5 483 18 is_stmt 1
	addq	$-32, %rax
	movq	%rax, -216(%rbp)
Ltmp1246:
	.loc	5 1108 9
	jmp	LBB134_8
Ltmp1247:
LBB134_7:
	.loc	5 0 9 is_stmt 0
	movq	-304(%rbp), %rax
	.loc	5 1110 13 is_stmt 1
	movq	%rax, -216(%rbp)
Ltmp1248:
LBB134_8:
	.loc	17 505 9
	jmp	LBB134_9
Ltmp1249:
LBB134_9:
	.loc	17 0 9 is_stmt 0
	movq	-304(%rbp), %rax
Ltmp1250:
	.loc	7 1378 9 is_stmt 1
	movq	-216(%rbp), %rcx
	movq	-256(%rbp), %rdx
	movq	%rdx, (%rcx)
	movq	-248(%rbp), %rdx
	movq	%rdx, 8(%rcx)
	movq	-240(%rbp), %rdx
	movq	%rdx, 16(%rcx)
	movq	-232(%rbp), %rdx
	movq	%rdx, 24(%rcx)
Ltmp1251:
	.loc	17 1290 6 epilogue_begin
	addq	$336, %rsp
	popq	%rbp
	retq
Ltmp1252:
LBB134_10:
	.loc	17 1283 5
	movq	-48(%rbp), %rdi
	callq	__Unwind_Resume
Ltmp1253:
LBB134_11:
Ltmp1197:
	.loc	17 0 5 is_stmt 0
	movq	-312(%rbp), %rdi
	.loc	17 1290 5 is_stmt 1
	callq	__ZN4core3ptr75drop_in_place$LT$$LP$u32$C$sigalign..algorithm..anchor..AnchorTable$RP$$GT$17he7fb4dc32d404540E
Ltmp1198:
	jmp	LBB134_10
Ltmp1254:
LBB134_12:
Ltmp1199:
	.loc	17 1283 5
	callq	__ZN4core9panicking19panic_cannot_unwind17h0477e80cce5de375E
Ltmp1255:
Lfunc_end134:
	.cfi_endproc
	.section	__TEXT,__gcc_except_tab
	.p2align	2, 0x0
GCC_except_table134:
Lexception29:
	.byte	255
	.byte	155
	.uleb128 Lttbase16-Lttbaseref16
Lttbaseref16:
	.byte	1
	.uleb128 Lcst_end29-Lcst_begin29
Lcst_begin29:
	.uleb128 Ltmp1194-Lfunc_begin134
	.uleb128 Ltmp1195-Ltmp1194
	.uleb128 Ltmp1196-Lfunc_begin134
	.byte	0
	.uleb128 Ltmp1195-Lfunc_begin134
	.uleb128 Ltmp1197-Ltmp1195
	.byte	0
	.byte	0
	.uleb128 Ltmp1197-Lfunc_begin134
	.uleb128 Ltmp1198-Ltmp1197
	.uleb128 Ltmp1199-Lfunc_begin134
	.byte	1
Lcst_end29:
	.byte	127
	.byte	0
	.p2align	2, 0x0
Lttbase16:
	.byte	0
	.p2align	2, 0x0

	.section	__TEXT,__text,regular,pure_instructions
	.p2align	4, 0x90
__ZN9hashbrown3raw21RawTable$LT$T$C$A$GT$14reserve_rehash17h0f125318a2debd6eE:
Lfunc_begin135:
	.loc	17 1113 0
	.cfi_startproc
	.cfi_personality 155, _rust_eh_personality
	.cfi_lsda 16, Lexception30
	pushq	%rbp
	.cfi_def_cfa_offset 16
	.cfi_offset %rbp, -16
	movq	%rsp, %rbp
	.cfi_def_cfa_register %rbp
	subq	$1072, %rsp
	movq	%rsi, -936(%rbp)
	movq	%rdi, -928(%rbp)
	movb	%cl, %al
	movb	%al, -913(%rbp)
	movq	%rdx, -912(%rbp)
	movq	%rdi, -888(%rbp)
	movq	%rsi, -880(%rbp)
	andb	$1, %al
	movb	%al, -865(%rbp)
Ltmp1279:
	.loc	17 1122 18 prologue_end
	leaq	-912(%rbp), %rax
	movq	%rax, -904(%rbp)
	.loc	17 1125 20
	movb	$1, %al
	testb	$1, %al
	jne	LBB135_2
	.loc	17 1128 21
	movq	$0, -896(%rbp)
	.loc	17 1125 17
	jmp	LBB135_3
LBB135_2:
	.loc	17 1126 21
	leaq	__ZN4core3ptr75drop_in_place$LT$$LP$u32$C$sigalign..algorithm..anchor..AnchorTable$RP$$GT$17he7fb4dc32d404540E(%rip), %rax
	movq	%rax, -896(%rbp)
LBB135_3:
	.loc	17 0 21 is_stmt 0
	movq	-936(%rbp), %rax
	movq	-928(%rbp), %rcx
	movb	-913(%rbp), %sil
	.loc	17 1120 13 is_stmt 1
	movq	-896(%rbp), %rdx
	movq	%rdx, -952(%rbp)
	movq	%rcx, -808(%rbp)
	movq	%rax, -800(%rbp)
	leaq	-904(%rbp), %rdi
	movq	%rdi, -792(%rbp)
	leaq	l___unnamed_4(%rip), %rdi
	movq	%rdi, -784(%rbp)
	andb	$1, %sil
	movb	%sil, -769(%rbp)
	movq	$32, -768(%rbp)
	movq	$16, -760(%rbp)
	movq	%rdx, -752(%rbp)
Ltmp1280:
	.loc	17 2193 31
	movq	24(%rcx), %rcx
	movq	%rcx, -744(%rbp)
Ltmp1281:
	.loc	4 1267 5
	addq	%rax, %rcx
	movq	%rcx, -944(%rbp)
	setb	%al
	movq	%rcx, -736(%rbp)
	movb	%al, %dl
	andb	$1, %dl
	movb	%dl, -721(%rbp)
Ltmp1282:
	.loc	4 1267 5 is_stmt 0
	movq	%rcx, -720(%rbp)
Ltmp1283:
	.loc	4 1267 5
	andb	$1, %al
	movb	%al, -705(%rbp)
	testb	$1, -705(%rbp)
	jne	LBB135_5
	.loc	4 0 5
	movq	-944(%rbp), %rax
	.loc	4 1267 5
	movq	%rax, -824(%rbp)
	movq	$1, -832(%rbp)
	jmp	LBB135_6
LBB135_5:
	movq	$0, -832(%rbp)
Ltmp1284:
LBB135_6:
	.loc	17 2193 25 is_stmt 1
	cmpq	$0, -832(%rbp)
	jne	LBB135_9
Ltmp1276:
	.loc	17 0 25 is_stmt 0
	movb	-913(%rbp), %al
	.loc	17 2195 32 is_stmt 1
	movzbl	%al, %edi
	andl	$1, %edi
	callq	__ZN9hashbrown3raw11Fallibility17capacity_overflow17h0bad4f44f7b3d0b8E
Ltmp1277:
	movq	%rdx, -968(%rbp)
	movq	%rax, -960(%rbp)
	jmp	LBB135_8
LBB135_8:
	.loc	17 0 32 is_stmt 0
	movq	-968(%rbp), %rax
	movq	-960(%rbp), %rcx
	.loc	17 2195 28
	movq	%rcx, -848(%rbp)
	movq	%rax, -840(%rbp)
	.loc	17 2213 6 is_stmt 1
	jmp	LBB135_41
LBB135_9:
	.loc	17 0 6 is_stmt 0
	movq	-928(%rbp), %rax
	.loc	17 2194 18 is_stmt 1
	movq	-824(%rbp), %rcx
	movq	%rcx, -984(%rbp)
	movq	%rcx, -704(%rbp)
Ltmp1285:
	.loc	17 2197 53
	movq	8(%rax), %rax
	movq	%rax, -976(%rbp)
	movq	%rax, -696(%rbp)
Ltmp1286:
	.loc	17 212 8
	cmpq	$8, %rax
	jb	LBB135_11
	.loc	17 0 8 is_stmt 0
	movq	-976(%rbp), %rax
	.loc	17 218 10 is_stmt 1
	addq	$1, %rax
	.loc	17 218 9 is_stmt 0
	shrq	$3, %rax
	imulq	$7, %rax, %rax
	movq	%rax, -816(%rbp)
	.loc	17 212 5 is_stmt 1
	jmp	LBB135_12
LBB135_11:
	.loc	17 0 5 is_stmt 0
	movq	-976(%rbp), %rax
	.loc	17 215 9 is_stmt 1
	movq	%rax, -816(%rbp)
Ltmp1287:
LBB135_12:
	.loc	17 0 9 is_stmt 0
	movq	-984(%rbp), %rax
Ltmp1288:
	.loc	17 2198 25 is_stmt 1
	movq	-816(%rbp), %rcx
	shrq	%rcx
	.loc	17 2198 12 is_stmt 0
	cmpq	%rcx, %rax
	jbe	LBB135_38
	.loc	17 0 12
	movq	-984(%rbp), %rdi
	.loc	17 2207 39 is_stmt 1
	movq	-816(%rbp), %rsi
	incq	%rsi
	movq	%rsi, -688(%rbp)
Ltmp1256:
Ltmp1289:
	.loc	20 794 9
	callq	__ZN4core3cmp6max_by17h9730543b5f9eb76cE
Ltmp1257:
	movq	%rax, -992(%rbp)
	jmp	LBB135_14
Ltmp1290:
LBB135_14:
	.loc	20 0 9 is_stmt 0
	movq	-992(%rbp), %r8
	movq	-928(%rbp), %rsi
	movb	-913(%rbp), %al
Ltmp1291:
	.loc	17 1912 9 is_stmt 1
	leaq	L___unnamed_17(%rip), %rcx
	movq	%rcx, -680(%rbp)
Ltmp1292:
	.loc	17 1912 9 is_stmt 0
	movb	$1, -665(%rbp)
Ltmp1293:
	.loc	17 1912 9
	movq	%rcx, -664(%rbp)
Ltmp1294:
	.loc	17 1912 9
	movb	$1, -649(%rbp)
	movq	%rsi, -280(%rbp)
	movq	%r8, -272(%rbp)
	leaq	-904(%rbp), %rcx
	movq	%rcx, -264(%rbp)
	leaq	l___unnamed_4(%rip), %rcx
	movq	%rcx, -256(%rbp)
	movb	%al, %cl
	andb	$1, %cl
	movb	%cl, -241(%rbp)
	movq	$32, -240(%rbp)
	movq	$16, -232(%rbp)
Ltmp1295:
Ltmp1258:
	.loc	17 2229 29 is_stmt 1
	movzbl	%al, %r9d
	andl	$1, %r9d
	leaq	-536(%rbp), %rdi
	movl	$32, %edx
	movl	$16, %ecx
	callq	__ZN9hashbrown3raw22RawTableInner$LT$A$GT$14prepare_resize17hcf02ab2546285434E
Ltmp1259:
	jmp	LBB135_15
LBB135_15:
Ltmp1296:
	.loc	39 1949 15
	movq	-536(%rbp), %rdx
	xorl	%eax, %eax
	movl	$1, %ecx
	cmpq	$0, %rdx
	cmoveq	%rcx, %rax
	.loc	39 1949 9 is_stmt 0
	cmpq	$0, %rax
	jne	LBB135_17
	.loc	39 1950 16 is_stmt 1
	leaq	-360(%rbp), %rdi
	leaq	-536(%rbp), %rsi
	movl	$48, %edx
	callq	_memcpy
Ltmp1297:
	.loc	39 1950 22 is_stmt 0
	leaq	-584(%rbp), %rdi
	leaq	-360(%rbp), %rsi
	movl	$48, %edx
	callq	_memcpy
Ltmp1298:
	.loc	39 1950 45
	jmp	LBB135_18
LBB135_17:
	.loc	39 1951 17 is_stmt 1
	movq	-528(%rbp), %rcx
	movq	-520(%rbp), %rax
	movq	%rcx, -224(%rbp)
	movq	%rax, -216(%rbp)
Ltmp1299:
	.loc	39 1951 42 is_stmt 0
	movq	%rcx, -312(%rbp)
	movq	%rax, -304(%rbp)
	.loc	39 1951 23
	movq	-312(%rbp), %rcx
	movq	-304(%rbp), %rax
	movq	%rcx, -576(%rbp)
	movq	%rax, -568(%rbp)
	movq	$0, -584(%rbp)
Ltmp1300:
LBB135_18:
	.loc	17 2229 29 is_stmt 1
	movq	-584(%rbp), %rdx
	xorl	%eax, %eax
	movl	$1, %ecx
	cmpq	$0, %rdx
	cmoveq	%rcx, %rax
	cmpq	$0, %rax
	jne	LBB135_20
	leaq	-472(%rbp), %rdi
	leaq	-584(%rbp), %rsi
	movl	$48, %edx
	callq	_memcpy
Ltmp1301:
	.loc	17 2229 29 is_stmt 0
	leaq	-632(%rbp), %rdi
	leaq	-472(%rbp), %rsi
	movl	$48, %edx
	callq	_memcpy
	movq	-928(%rbp), %rax
Ltmp1302:
	.loc	17 2121 9 is_stmt 1
	movq	8(%rax), %rax
	addq	$1, %rax
Ltmp1303:
	.loc	17 2232 18
	movq	$0, -424(%rbp)
	movq	%rax, -416(%rbp)
	movq	-424(%rbp), %rcx
	movq	-416(%rbp), %rax
	movq	%rcx, -408(%rbp)
	movq	%rax, -400(%rbp)
Ltmp1304:
	.loc	17 2232 9 is_stmt 0
	jmp	LBB135_21
Ltmp1305:
LBB135_20:
	.loc	17 2229 79 is_stmt 1
	movq	-576(%rbp), %rcx
	movq	-568(%rbp), %rax
	movq	%rcx, -488(%rbp)
	movq	%rax, -480(%rbp)
Ltmp1306:
	.loc	39 1962 17
	movq	-488(%rbp), %rcx
	movq	-480(%rbp), %rax
	movq	%rcx, -16(%rbp)
	movq	%rax, -8(%rbp)
Ltmp1307:
	.loc	39 1962 23 is_stmt 0
	movq	%rcx, -648(%rbp)
	movq	%rax, -640(%rbp)
Ltmp1308:
	.loc	17 2260 6 is_stmt 1
	jmp	LBB135_37
LBB135_21:
Ltmp1309:
	.loc	20 1427 5
	movq	-408(%rbp), %rax
	cmpq	-400(%rbp), %rax
Ltmp1310:
	.loc	32 621 12
	jb	LBB135_23
	.loc	32 627 13
	movq	$0, -392(%rbp)
	.loc	32 621 9
	jmp	LBB135_24
LBB135_23:
	.loc	32 622 23
	movq	-408(%rbp), %rdi
	movq	%rdi, -1008(%rbp)
	movq	%rdi, -208(%rbp)
Ltmp1260:
	movl	$1, %esi
Ltmp1311:
	.loc	32 624 35
	callq	__ZN49_$LT$usize$u20$as$u20$core..iter..range..Step$GT$17forward_unchecked17h0e211a17e29c3dd2E
Ltmp1261:
	movq	%rax, -1000(%rbp)
	jmp	LBB135_26
Ltmp1312:
LBB135_24:
	.loc	17 2232 18
	cmpq	$0, -392(%rbp)
	je	LBB135_27
	jmp	LBB135_28
Ltmp1313:
LBB135_25:
Ltmp1268:
	.loc	17 0 18 is_stmt 0
	movq	%rax, %rcx
	movl	%edx, %eax
	movq	%rcx, -200(%rbp)
	movl	%eax, -192(%rbp)
Ltmp1269:
	leaq	-632(%rbp), %rdi
	.loc	17 2260 5 is_stmt 1
	callq	__ZN4core3ptr224drop_in_place$LT$hashbrown..scopeguard..ScopeGuard$LT$hashbrown..raw..RawTableInner$LT$alloc..alloc..Global$GT$$C$hashbrown..raw..RawTableInner$LT$alloc..alloc..Global$GT$..prepare_resize..$u7b$$u7b$closure$u7d$$u7d$$GT$$GT$17h175bb71fd3927ad7E
Ltmp1270:
	jmp	LBB135_36
LBB135_26:
	.loc	17 0 5 is_stmt 0
	movq	-1008(%rbp), %rax
	movq	-1000(%rbp), %rcx
Ltmp1314:
	.loc	32 624 13 is_stmt 1
	movq	%rcx, -408(%rbp)
	.loc	32 625 13
	movq	%rax, -384(%rbp)
	movq	$1, -392(%rbp)
Ltmp1315:
	.loc	32 621 9
	jmp	LBB135_24
Ltmp1316:
LBB135_27:
Ltmp1266:
	.loc	32 0 9 is_stmt 0
	movq	-928(%rbp), %rdi
	leaq	-632(%rbp), %rsi
	.loc	17 2257 9 is_stmt 1
	callq	__ZN4core3mem4swap17h6718218833cc438bE
Ltmp1267:
	jmp	LBB135_29
LBB135_28:
	.loc	17 0 9 is_stmt 0
	movq	-928(%rbp), %rax
Ltmp1317:
	.loc	17 2232 13 is_stmt 1
	movq	-384(%rbp), %rcx
	movq	%rcx, -1016(%rbp)
	movq	%rcx, -184(%rbp)
Ltmp1318:
	.loc	17 2116 9
	movq	(%rax), %rax
	movq	%rax, -176(%rbp)
Ltmp1319:
	.loc	23 326 9
	movq	%rax, -168(%rbp)
Ltmp1320:
	.loc	17 2132 17
	movb	(%rax,%rcx), %al
	movb	%al, -153(%rbp)
Ltmp1321:
	.loc	17 105 5
	andb	$-128, %al
	cmpb	$0, %al
	sete	%al
Ltmp1322:
	.loc	17 2233 16
	xorb	$-1, %al
	testb	$1, %al
	jne	LBB135_32
	jmp	LBB135_31
Ltmp1323:
LBB135_29:
	.loc	17 0 16 is_stmt 0
	movabsq	$-9223372036854775807, %rax
	.loc	17 2259 9 is_stmt 1
	movq	%rax, -648(%rbp)
Ltmp1272:
	leaq	-632(%rbp), %rdi
Ltmp1324:
	.loc	17 2260 5
	callq	__ZN4core3ptr224drop_in_place$LT$hashbrown..scopeguard..ScopeGuard$LT$hashbrown..raw..RawTableInner$LT$alloc..alloc..Global$GT$$C$hashbrown..raw..RawTableInner$LT$alloc..alloc..Global$GT$..prepare_resize..$u7b$$u7b$closure$u7d$$u7d$$GT$$GT$17h175bb71fd3927ad7E
Ltmp1273:
	jmp	LBB135_30
LBB135_30:
	.loc	17 2260 6 is_stmt 0
	jmp	LBB135_37
LBB135_31:
	.loc	17 0 6
	movq	-1016(%rbp), %rax
	movq	-928(%rbp), %rcx
Ltmp1325:
	.loc	17 2238 24 is_stmt 1
	movq	%rcx, -376(%rbp)
	movq	%rax, -368(%rbp)
	movq	-376(%rbp), %rsi
	movq	-368(%rbp), %rdx
Ltmp1262:
	leaq	-904(%rbp), %rdi
	callq	__ZN9hashbrown3raw21RawTable$LT$T$C$A$GT$14reserve_rehash28_$u7b$$u7b$closure$u7d$$u7d$17h10c48481fb2aa221E
Ltmp1263:
	movq	%rax, -1024(%rbp)
	jmp	LBB135_33
Ltmp1326:
LBB135_32:
	.loc	61 1 1
	jmp	LBB135_21
LBB135_33:
	.loc	61 0 1 is_stmt 0
	movq	-1024(%rbp), %rsi
Ltmp1327:
	.loc	17 2238 24 is_stmt 1
	movq	%rsi, -152(%rbp)
Ltmp1264:
	leaq	-632(%rbp), %rdi
Ltmp1328:
	.loc	17 2244 30
	callq	__ZN9hashbrown3raw22RawTableInner$LT$A$GT$19prepare_insert_slot17hd9d5caf0af9c4d65E
Ltmp1265:
	movq	%rax, -1032(%rbp)
	jmp	LBB135_34
LBB135_34:
	.loc	17 0 30 is_stmt 0
	movq	-1032(%rbp), %rdi
	movq	-1016(%rbp), %rax
	movq	-928(%rbp), %rcx
	.loc	17 2244 18
	movq	%rdi, -144(%rbp)
Ltmp1329:
	.loc	17 2247 36 is_stmt 1
	movq	$32, -136(%rbp)
Ltmp1330:
	.loc	17 1920 32
	movq	(%rcx), %rcx
	movq	%rcx, -128(%rbp)
Ltmp1331:
	.loc	23 326 9
	movq	%rcx, -120(%rbp)
Ltmp1332:
	.loc	23 201 13
	movq	%rcx, -296(%rbp)
Ltmp1333:
	.loc	23 326 9
	movq	-296(%rbp), %rdx
	movq	%rdx, -112(%rbp)
Ltmp1334:
	.loc	17 1915 18
	addq	$1, %rax
	shlq	$5, %rax
	movq	%rax, -104(%rbp)
Ltmp1335:
	.loc	5 1115 34
	xorl	%ecx, %ecx
	movl	%ecx, %esi
	subq	%rax, %rsi
	movq	%rsi, -96(%rbp)
Ltmp1336:
	.loc	5 483 18
	movq	%rdx, %rax
	addq	%rsi, %rax
Ltmp1337:
	.loc	17 2247 17
	movq	%rax, -88(%rbp)
	.loc	17 2248 45
	movq	$32, -80(%rbp)
Ltmp1338:
	.loc	17 1920 32
	movq	-632(%rbp), %rax
	movq	%rax, -72(%rbp)
Ltmp1339:
	.loc	23 326 9
	movq	%rax, -64(%rbp)
Ltmp1340:
	.loc	23 201 13
	movq	%rax, -288(%rbp)
Ltmp1341:
	.loc	23 326 9
	movq	-288(%rbp), %rax
	movq	%rax, -56(%rbp)
Ltmp1342:
	.loc	17 1915 18
	addq	$1, %rdi
	shlq	$5, %rdi
	movq	%rdi, -48(%rbp)
Ltmp1343:
	.loc	5 1115 34
	xorl	%ecx, %ecx
	subq	%rdi, %rcx
	movq	%rcx, -40(%rbp)
Ltmp1344:
	.loc	5 483 18
	movq	%rax, %rdi
	addq	%rcx, %rdi
	movq	%rdi, -32(%rbp)
Ltmp1345:
	.loc	17 2249 17
	movq	$32, -24(%rbp)
Ltmp1346:
	.loc	6 2685 9
	movq	(%rdx,%rsi), %rdi
	movq	%rdi, (%rax,%rcx)
	movq	8(%rdx,%rsi), %rdi
	movq	%rdi, 8(%rax,%rcx)
	movq	16(%rdx,%rsi), %rdi
	movq	%rdi, 16(%rax,%rcx)
	movq	24(%rdx,%rsi), %rdx
	movq	%rdx, 24(%rax,%rcx)
Ltmp1347:
	.loc	17 2232 9
	jmp	LBB135_21
Ltmp1348:
LBB135_35:
Ltmp1271:
	.loc	17 2222 5
	callq	__ZN4core9panicking19panic_cannot_unwind17h0477e80cce5de375E
LBB135_36:
	movq	-200(%rbp), %rcx
	movl	-192(%rbp), %eax
	movq	%rcx, -1048(%rbp)
	movl	%eax, -1036(%rbp)
	jmp	LBB135_44
LBB135_37:
	.loc	17 2260 6
	movq	-648(%rbp), %rax
	movq	-640(%rbp), %rcx
Ltmp1349:
	.loc	17 2206 13
	movq	%rcx, -840(%rbp)
	movq	%rax, -848(%rbp)
	.loc	17 2198 9
	jmp	LBB135_40
LBB135_38:
Ltmp1274:
	.loc	17 0 9 is_stmt 0
	movq	-952(%rbp), %r8
	movq	-928(%rbp), %rdi
	.loc	17 2201 13 is_stmt 1
	leaq	l___unnamed_4(%rip), %rdx
	leaq	-904(%rbp), %rsi
	movl	$32, %ecx
	callq	__ZN9hashbrown3raw22RawTableInner$LT$A$GT$15rehash_in_place17h7a90b5ec55c750c4E
Ltmp1275:
	jmp	LBB135_39
LBB135_39:
	.loc	17 2202 13
	movabsq	$-9223372036854775807, %rax
	movq	%rax, -848(%rbp)
Ltmp1350:
LBB135_40:
	.loc	17 2213 6
	jmp	LBB135_41
LBB135_41:
	movq	-848(%rbp), %rax
	movq	%rax, -1064(%rbp)
	movq	-840(%rbp), %rax
	movq	%rax, -1056(%rbp)
	jmp	LBB135_45
Ltmp1351:
LBB135_42:
	.loc	17 1113 5
	movq	-864(%rbp), %rdi
	callq	__Unwind_Resume
LBB135_43:
Ltmp1278:
	.loc	17 0 5 is_stmt 0
	movq	%rax, %rcx
	movl	%edx, %eax
	movq	%rcx, -1048(%rbp)
	movl	%eax, -1036(%rbp)
	jmp	LBB135_44
LBB135_44:
	movq	-1048(%rbp), %rcx
	movl	-1036(%rbp), %eax
	movq	%rcx, -864(%rbp)
	movl	%eax, -856(%rbp)
	jmp	LBB135_42
LBB135_45:
	movq	-1056(%rbp), %rdx
	movq	-1064(%rbp), %rax
	.loc	17 1132 6 epilogue_begin is_stmt 1
	addq	$1072, %rsp
	popq	%rbp
	retq
Ltmp1352:
Lfunc_end135:
	.cfi_endproc
	.section	__TEXT,__gcc_except_tab
	.p2align	2, 0x0
GCC_except_table135:
Lexception30:
	.byte	255
	.byte	155
	.uleb128 Lttbase17-Lttbaseref17
Lttbaseref17:
	.byte	1
	.uleb128 Lcst_end30-Lcst_begin30
Lcst_begin30:
	.uleb128 Ltmp1276-Lfunc_begin135
	.uleb128 Ltmp1259-Ltmp1276
	.uleb128 Ltmp1278-Lfunc_begin135
	.byte	0
	.uleb128 Ltmp1259-Lfunc_begin135
	.uleb128 Ltmp1260-Ltmp1259
	.byte	0
	.byte	0
	.uleb128 Ltmp1260-Lfunc_begin135
	.uleb128 Ltmp1261-Ltmp1260
	.uleb128 Ltmp1268-Lfunc_begin135
	.byte	0
	.uleb128 Ltmp1269-Lfunc_begin135
	.uleb128 Ltmp1270-Ltmp1269
	.uleb128 Ltmp1271-Lfunc_begin135
	.byte	3
	.uleb128 Ltmp1266-Lfunc_begin135
	.uleb128 Ltmp1267-Ltmp1266
	.uleb128 Ltmp1268-Lfunc_begin135
	.byte	0
	.uleb128 Ltmp1272-Lfunc_begin135
	.uleb128 Ltmp1273-Ltmp1272
	.uleb128 Ltmp1278-Lfunc_begin135
	.byte	0
	.uleb128 Ltmp1262-Lfunc_begin135
	.uleb128 Ltmp1265-Ltmp1262
	.uleb128 Ltmp1268-Lfunc_begin135
	.byte	0
	.uleb128 Ltmp1274-Lfunc_begin135
	.uleb128 Ltmp1275-Ltmp1274
	.uleb128 Ltmp1278-Lfunc_begin135
	.byte	0
	.uleb128 Ltmp1275-Lfunc_begin135
	.uleb128 Lfunc_end135-Ltmp1275
	.byte	0
	.byte	0
Lcst_end30:
	.byte	0
	.byte	0
	.byte	127
	.byte	125
	.p2align	2, 0x0
Lttbase17:
	.byte	0
	.p2align	2, 0x0

	.section	__TEXT,__text,regular,pure_instructions
	.p2align	4, 0x90
__ZN9hashbrown3raw21RawTable$LT$T$C$A$GT$14reserve_rehash28_$u7b$$u7b$closure$u7d$$u7d$17h10c48481fb2aa221E:
Lfunc_begin136:
	.loc	17 1122 0
	.cfi_startproc
	pushq	%rbp
	.cfi_def_cfa_offset 16
	.cfi_offset %rbp, -16
	movq	%rsp, %rbp
	.cfi_def_cfa_register %rbp
	subq	$160, %rsp
	movq	%rdx, -152(%rbp)
	movq	%rsi, %rax
	movq	-152(%rbp), %rsi
Ltmp1353:
	.loc	17 1905 9 prologue_end
	leaq	L___unnamed_17(%rip), %rcx
	movq	%rcx, -128(%rbp)
Ltmp1354:
	.loc	17 1905 9 is_stmt 0
	movb	$1, -113(%rbp)
Ltmp1355:
	.loc	5 1104 35 is_stmt 1
	movq	$1, -112(%rbp)
Ltmp1356:
	.loc	5 476 38
	movq	$-1, -104(%rbp)
	movq	%rdi, -72(%rbp)
	movq	%rax, -64(%rbp)
	movq	%rsi, -56(%rbp)
Ltmp1357:
	.loc	17 1122 33
	movq	(%rdi), %rcx
	movq	%rcx, -144(%rbp)
Ltmp1358:
	.loc	17 1920 32
	movq	(%rax), %rax
	movq	%rax, -48(%rbp)
Ltmp1359:
	.loc	23 326 9
	movq	%rax, -40(%rbp)
Ltmp1360:
	.loc	5 61 9
	movq	%rax, -32(%rbp)
Ltmp1361:
	.loc	23 201 13
	movq	%rax, -88(%rbp)
Ltmp1362:
	.loc	17 1907 9
	movq	-88(%rbp), %rdi
	callq	__ZN9hashbrown3raw15Bucket$LT$T$GT$15from_base_index17hfca42c7a619dd7c4E
	movq	%rax, -136(%rbp)
Ltmp1363:
	.loc	17 505 12
	xorl	%eax, %eax
	testb	$1, %al
	jne	LBB136_2
	.loc	17 0 12 is_stmt 0
	movq	-136(%rbp), %rax
	.loc	17 510 22 is_stmt 1
	movq	%rax, -24(%rbp)
Ltmp1364:
	.loc	23 326 9
	movq	%rax, -16(%rbp)
Ltmp1365:
	.loc	5 1108 12
	xorl	%eax, %eax
	testb	$1, %al
	jne	LBB136_4
	jmp	LBB136_3
Ltmp1366:
LBB136_2:
	.loc	9 466 5
	movq	$8, -8(%rbp)
Ltmp1367:
	.loc	7 606 14
	movl	$8, %eax
	movq	%rax, -80(%rbp)
Ltmp1368:
	.loc	17 505 9
	jmp	LBB136_6
LBB136_3:
	.loc	17 0 9 is_stmt 0
	movq	-136(%rbp), %rax
Ltmp1369:
	.loc	5 483 18 is_stmt 1
	addq	$-32, %rax
	movq	%rax, -80(%rbp)
Ltmp1370:
	.loc	5 1108 9
	jmp	LBB136_5
LBB136_4:
	.loc	5 0 9 is_stmt 0
	movq	-136(%rbp), %rax
	.loc	5 1110 13 is_stmt 1
	movq	%rax, -80(%rbp)
Ltmp1371:
LBB136_5:
	.loc	17 505 9
	jmp	LBB136_6
Ltmp1372:
LBB136_6:
	.loc	17 0 9 is_stmt 0
	movq	-144(%rbp), %rdi
	.loc	17 674 9 is_stmt 1
	movq	-80(%rbp), %rax
Ltmp1373:
	.loc	17 1122 33
	movq	%rax, -96(%rbp)
	movq	-96(%rbp), %rsi
	callq	__ZN9hashbrown3map11make_hasher28_$u7b$$u7b$closure$u7d$$u7d$17h8dc890568bf30b26E
	.loc	17 1122 74 epilogue_begin is_stmt 0
	addq	$160, %rsp
	popq	%rbp
	retq
Ltmp1374:
Lfunc_end136:
	.cfi_endproc

	.p2align	4, 0x90
__ZN9hashbrown3raw21RawTable$LT$T$C$A$GT$24find_or_find_insert_slot17h9b2cda940be87dd4E:
Lfunc_begin137:
	.loc	17 1256 0 is_stmt 1
	.cfi_startproc
	.cfi_personality 155, _rust_eh_personality
	.cfi_lsda 16, Lexception31
	pushq	%rbp
	.cfi_def_cfa_offset 16
	.cfi_offset %rbp, -16
	movq	%rsp, %rbp
	.cfi_def_cfa_register %rbp
	subq	$208, %rsp
	movq	%r8, -184(%rbp)
	movq	%rdx, %rax
	movq	-184(%rbp), %rdx
	movq	%rax, -176(%rbp)
	movq	%rsi, -168(%rbp)
	movq	%rdi, %rsi
	movq	-168(%rbp), %rdi
	movq	%rsi, -160(%rbp)
	movq	%rsi, -152(%rbp)
Ltmp1382:
	.loc	17 953 9 prologue_end
	leaq	L___unnamed_17(%rip), %rsi
	movq	%rsi, -144(%rbp)
Ltmp1383:
	.loc	17 953 9 is_stmt 0
	movb	$1, -129(%rbp)
	movq	%rcx, -128(%rbp)
	movq	%rdi, -80(%rbp)
	movq	%rax, -72(%rbp)
	movq	%rdx, -64(%rbp)
Ltmp1375:
	movl	$1, %esi
Ltmp1384:
	.loc	17 1262 9 is_stmt 1
	callq	__ZN9hashbrown3raw21RawTable$LT$T$C$A$GT$7reserve17h02c1ad695a45bd03E
Ltmp1376:
	jmp	LBB137_3
LBB137_1:
	.loc	17 1256 5
	movq	-56(%rbp), %rdi
	callq	__Unwind_Resume
LBB137_2:
Ltmp1381:
	.loc	17 0 5 is_stmt 0
	movq	%rax, %rcx
	movl	%edx, %eax
	movq	%rcx, -56(%rbp)
	movl	%eax, -48(%rbp)
	jmp	LBB137_1
LBB137_3:
	movq	-176(%rbp), %rsi
	movq	-168(%rbp), %rdi
	leaq	-128(%rbp), %rax
	.loc	17 1266 56 is_stmt 1
	movq	%rax, -104(%rbp)
	movq	%rdi, -96(%rbp)
Ltmp1377:
	.loc	17 1264 15
	leaq	l___unnamed_5(%rip), %rcx
	leaq	-104(%rbp), %rdx
	callq	__ZN9hashbrown3raw22RawTableInner$LT$A$GT$30find_or_find_insert_slot_inner17hf8c1c3ba09d1a60fE
Ltmp1378:
	movq	%rdx, -200(%rbp)
	movq	%rax, -192(%rbp)
	jmp	LBB137_4
LBB137_4:
	.loc	17 0 15 is_stmt 0
	movq	-200(%rbp), %rax
	movq	-192(%rbp), %rcx
	.loc	17 1264 15
	movq	%rcx, -120(%rbp)
	movq	%rax, -112(%rbp)
	.loc	17 1264 9
	cmpq	$0, -120(%rbp)
	jne	LBB137_6
	.loc	17 0 9
	movq	-168(%rbp), %rax
	.loc	17 1269 16 is_stmt 1
	movq	-112(%rbp), %rsi
	movq	%rsi, -40(%rbp)
Ltmp1385:
	.loc	17 921 32
	movq	(%rax), %rax
	movq	%rax, -32(%rbp)
Ltmp1386:
	.loc	23 326 9
	movq	%rax, -24(%rbp)
Ltmp1387:
	.loc	5 61 9
	movq	%rax, -16(%rbp)
Ltmp1388:
	.loc	23 201 13
	movq	%rax, -88(%rbp)
Ltmp1389:
	.loc	17 955 9
	movq	-88(%rbp), %rdi
Ltmp1379:
	callq	__ZN9hashbrown3raw15Bucket$LT$T$GT$15from_base_index17hfca42c7a619dd7c4E
Ltmp1380:
	movq	%rax, -208(%rbp)
	jmp	LBB137_7
Ltmp1390:
LBB137_6:
	.loc	17 0 9 is_stmt 0
	movq	-160(%rbp), %rax
	.loc	17 1270 17 is_stmt 1
	movq	-112(%rbp), %rcx
	movq	%rcx, -8(%rbp)
Ltmp1391:
	.loc	17 1270 26 is_stmt 0
	movq	%rcx, 8(%rax)
	movq	$1, (%rax)
Ltmp1392:
	.loc	17 1270 34
	jmp	LBB137_8
LBB137_7:
	.loc	17 0 34
	movq	-160(%rbp), %rax
	movq	-208(%rbp), %rcx
Ltmp1393:
	.loc	17 1269 26 is_stmt 1
	movq	%rcx, 8(%rax)
	movq	$0, (%rax)
Ltmp1394:
LBB137_8:
	.loc	17 0 26 is_stmt 0
	movq	-152(%rbp), %rax
	.loc	17 1272 6 epilogue_begin is_stmt 1
	addq	$208, %rsp
	popq	%rbp
	retq
Ltmp1395:
Lfunc_end137:
	.cfi_endproc
	.section	__TEXT,__gcc_except_tab
	.p2align	2, 0x0
GCC_except_table137:
Lexception31:
	.byte	255
	.byte	255
	.byte	1
	.uleb128 Lcst_end31-Lcst_begin31
Lcst_begin31:
	.uleb128 Ltmp1375-Lfunc_begin137
	.uleb128 Ltmp1376-Ltmp1375
	.uleb128 Ltmp1381-Lfunc_begin137
	.byte	0
	.uleb128 Ltmp1376-Lfunc_begin137
	.uleb128 Ltmp1377-Ltmp1376
	.byte	0
	.byte	0
	.uleb128 Ltmp1377-Lfunc_begin137
	.uleb128 Ltmp1380-Ltmp1377
	.uleb128 Ltmp1381-Lfunc_begin137
	.byte	0
Lcst_end31:
	.p2align	2, 0x0

	.section	__TEXT,__text,regular,pure_instructions
	.p2align	4, 0x90
__ZN9hashbrown3raw21RawTable$LT$T$C$A$GT$24find_or_find_insert_slot28_$u7b$$u7b$closure$u7d$$u7d$17h670f965f31fb4e4dE:
Lfunc_begin138:
	.loc	17 1266 0
	.cfi_startproc
	pushq	%rbp
	.cfi_def_cfa_offset 16
	.cfi_offset %rbp, -16
	movq	%rsp, %rbp
	.cfi_def_cfa_register %rbp
	subq	$144, %rsp
Ltmp1396:
	.loc	17 953 9 prologue_end
	leaq	L___unnamed_17(%rip), %rax
	movq	%rax, -128(%rbp)
Ltmp1397:
	.loc	17 953 9 is_stmt 0
	movb	$1, -113(%rbp)
Ltmp1398:
	.loc	5 1104 35 is_stmt 1
	movq	$1, -112(%rbp)
Ltmp1399:
	.loc	5 476 38
	movq	$-1, -104(%rbp)
	movq	%rdi, -72(%rbp)
	movq	%rsi, -64(%rbp)
Ltmp1400:
	.loc	17 1267 17
	movq	(%rdi), %rax
	movq	%rax, -144(%rbp)
	.loc	17 1267 20 is_stmt 0
	movq	8(%rdi), %rax
	movq	%rax, -56(%rbp)
Ltmp1401:
	.loc	17 921 32 is_stmt 1
	movq	(%rax), %rax
	movq	%rax, -48(%rbp)
Ltmp1402:
	.loc	23 326 9
	movq	%rax, -40(%rbp)
Ltmp1403:
	.loc	5 61 9
	movq	%rax, -32(%rbp)
Ltmp1404:
	.loc	23 201 13
	movq	%rax, -88(%rbp)
Ltmp1405:
	.loc	17 955 9
	movq	-88(%rbp), %rdi
	callq	__ZN9hashbrown3raw15Bucket$LT$T$GT$15from_base_index17hfca42c7a619dd7c4E
	movq	%rax, -136(%rbp)
Ltmp1406:
	.loc	17 505 12
	xorl	%eax, %eax
	testb	$1, %al
	jne	LBB138_2
	.loc	17 0 12 is_stmt 0
	movq	-136(%rbp), %rax
	.loc	17 510 22 is_stmt 1
	movq	%rax, -24(%rbp)
Ltmp1407:
	.loc	23 326 9
	movq	%rax, -16(%rbp)
Ltmp1408:
	.loc	5 1108 12
	xorl	%eax, %eax
	testb	$1, %al
	jne	LBB138_4
	jmp	LBB138_3
Ltmp1409:
LBB138_2:
	.loc	9 466 5
	movq	$8, -8(%rbp)
Ltmp1410:
	.loc	7 606 14
	movl	$8, %eax
	movq	%rax, -80(%rbp)
Ltmp1411:
	.loc	17 505 9
	jmp	LBB138_6
LBB138_3:
	.loc	17 0 9 is_stmt 0
	movq	-136(%rbp), %rax
Ltmp1412:
	.loc	5 483 18 is_stmt 1
	addq	$-32, %rax
	movq	%rax, -80(%rbp)
Ltmp1413:
	.loc	5 1108 9
	jmp	LBB138_5
LBB138_4:
	.loc	5 0 9 is_stmt 0
	movq	-136(%rbp), %rax
	.loc	5 1110 13 is_stmt 1
	movq	%rax, -80(%rbp)
Ltmp1414:
LBB138_5:
	.loc	17 505 9
	jmp	LBB138_6
Ltmp1415:
LBB138_6:
	.loc	17 0 9 is_stmt 0
	movq	-144(%rbp), %rdi
	.loc	17 674 9 is_stmt 1
	movq	-80(%rbp), %rax
Ltmp1416:
	.loc	17 1267 17
	movq	%rax, -96(%rbp)
	movq	-96(%rbp), %rsi
	callq	__ZN9hashbrown3map14equivalent_key28_$u7b$$u7b$closure$u7d$$u7d$17h868e3f0fafce8b1bE
	.loc	17 1268 14
	andb	$1, %al
	movzbl	%al, %eax
	.loc	17 1268 14 epilogue_begin is_stmt 0
	addq	$144, %rsp
	popq	%rbp
	retq
Ltmp1417:
Lfunc_end138:
	.cfi_endproc

	.p2align	4, 0x90
__ZN9hashbrown3raw21RawTable$LT$T$C$A$GT$4find17h1d5026d98f8b2cf5E:
Lfunc_begin139:
	.loc	17 1294 0 is_stmt 1
	.cfi_startproc
	.cfi_personality 155, _rust_eh_personality
	.cfi_lsda 16, Lexception32
	pushq	%rbp
	.cfi_def_cfa_offset 16
	.cfi_offset %rbp, -16
	movq	%rsp, %rbp
	.cfi_def_cfa_register %rbp
	subq	$512, %rsp
	movq	%rdi, -440(%rbp)
Ltmp1431:
	.loc	17 953 9 prologue_end
	leaq	L___unnamed_17(%rip), %rax
	movq	%rax, -424(%rbp)
Ltmp1432:
	.loc	17 953 9 is_stmt 0
	movb	$1, -409(%rbp)
	movq	%rdx, -408(%rbp)
	movq	%rdi, -352(%rbp)
	movq	%rsi, -344(%rbp)
Ltmp1433:
	.loc	17 1295 55 is_stmt 1
	leaq	-408(%rbp), %rax
	movq	%rax, -376(%rbp)
	movq	%rdi, -368(%rbp)
	movq	%rdi, -192(%rbp)
	movq	%rsi, -184(%rbp)
	leaq	-376(%rbp), %rax
	movq	%rax, -176(%rbp)
	leaq	l___unnamed_6(%rip), %rax
	movq	%rax, -168(%rbp)
Ltmp1434:
	.loc	17 144 16
	movq	%rsi, %rax
	shrq	$57, %rax
	movq	%rax, -160(%rbp)
	movb	%al, -425(%rbp)
Ltmp1435:
	.loc	17 145 5
	movb	%al, -145(%rbp)
Ltmp1436:
	.loc	17 1931 18
	andq	8(%rdi), %rsi
	.loc	17 1930 9
	movq	%rsi, -272(%rbp)
	movq	$0, -264(%rbp)
Ltmp1437:
LBB139_1:
	.loc	17 0 9 is_stmt 0
	movq	-440(%rbp), %rcx
Ltmp1438:
	.loc	17 1814 56 is_stmt 1
	movq	-272(%rbp), %rax
	movq	%rax, -144(%rbp)
Ltmp1439:
	.loc	17 2116 9
	movq	(%rcx), %rsi
	movq	%rsi, -136(%rbp)
Ltmp1440:
	.loc	23 326 9
	movq	%rsi, -128(%rbp)
Ltmp1441:
	.loc	5 1024 18
	addq	%rax, %rsi
Ltmp1442:
	.loc	17 1814 46
	movq	%rsi, -120(%rbp)
Ltmp1418:
	leaq	-112(%rbp), %rdi
Ltmp1443:
	.loc	60 53 15
	callq	__ZN4core9core_arch3x864sse215_mm_loadu_si12817h4c3e97a794be9543E
Ltmp1419:
	jmp	LBB139_2
LBB139_2:
	.loc	60 0 15 is_stmt 0
	movb	-425(%rbp), %al
	.loc	60 53 15
	movaps	-112(%rbp), %xmm0
	.loc	60 53 9
	movaps	%xmm0, -256(%rbp)
Ltmp1444:
	.loc	17 1816 24 is_stmt 1
	movaps	-256(%rbp), %xmm0
	movaps	%xmm0, -96(%rbp)
Ltmp1420:
	movzbl	%al, %esi
	leaq	-96(%rbp), %rdi
	callq	__ZN9hashbrown3raw4sse25Group10match_byte17hc37552b21ff15f15E
Ltmp1421:
	movw	%ax, -442(%rbp)
	jmp	LBB139_3
LBB139_3:
	.loc	17 0 24 is_stmt 0
	movw	-442(%rbp), %ax
	.loc	17 1816 24
	movw	%ax, -66(%rbp)
Ltmp1445:
	.loc	56 99 21 is_stmt 1
	movw	%ax, -194(%rbp)
	.loc	56 99 9 is_stmt 0
	movw	-194(%rbp), %ax
	movw	%ax, -228(%rbp)
Ltmp1446:
	.loc	17 1816 24 is_stmt 1
	movw	-228(%rbp), %ax
	movw	%ax, -226(%rbp)
LBB139_4:
Ltmp1422:
	.loc	17 0 24 is_stmt 0
	leaq	-226(%rbp), %rdi
Ltmp1447:
	.loc	17 1816 24
	callq	__ZN95_$LT$hashbrown..raw..bitmask..BitMaskIter$u20$as$u20$core..iter..traits..iterator..Iterator$GT$4next17hd99a669776665727E
Ltmp1423:
	movq	%rdx, -464(%rbp)
	movq	%rax, -456(%rbp)
	jmp	LBB139_5
LBB139_5:
	.loc	17 0 24
	movq	-464(%rbp), %rax
	movq	-456(%rbp), %rcx
	.loc	17 1816 24
	movq	%rcx, -224(%rbp)
	movq	%rax, -216(%rbp)
	cmpq	$0, -224(%rbp)
	jne	LBB139_8
Ltmp1448:
	.loc	60 98 9 is_stmt 1
	movaps	-256(%rbp), %xmm0
	movaps	%xmm0, -64(%rbp)
Ltmp1426:
	leaq	-64(%rbp), %rdi
	movl	$255, %esi
	callq	__ZN9hashbrown3raw4sse25Group10match_byte17hc37552b21ff15f15E
Ltmp1427:
	movw	%ax, -466(%rbp)
	jmp	LBB139_7
LBB139_7:
	.loc	60 0 9 is_stmt 0
	movw	-466(%rbp), %ax
	.loc	60 98 9
	movw	%ax, -36(%rbp)
Ltmp1449:
	.loc	56 44 9 is_stmt 1
	cmpw	$0, %ax
	setne	%al
Ltmp1450:
	.loc	17 1826 16
	andb	$1, %al
	movb	%al, -33(%rbp)
	testb	$1, -33(%rbp)
	jne	LBB139_11
	jmp	LBB139_10
LBB139_8:
	.loc	17 0 16 is_stmt 0
	movq	-440(%rbp), %rcx
Ltmp1451:
	.loc	17 1816 17 is_stmt 1
	movq	-216(%rbp), %rdx
	movq	%rdx, -24(%rbp)
Ltmp1452:
	.loc	17 1819 30
	movq	-272(%rbp), %rax
	.loc	17 1819 29 is_stmt 0
	addq	%rdx, %rax
	.loc	17 1819 53
	movq	8(%rcx), %rcx
	.loc	17 1819 29
	andq	%rcx, %rax
	movq	%rax, -480(%rbp)
	movq	%rax, -16(%rbp)
Ltmp1453:
	.loc	17 1821 27 is_stmt 1
	movq	%rax, -208(%rbp)
	movq	-208(%rbp), %rsi
Ltmp1424:
	leaq	-376(%rbp), %rdi
	callq	__ZN9hashbrown3raw21RawTable$LT$T$C$A$GT$4find28_$u7b$$u7b$closure$u7d$$u7d$17hd5a6531ca539ed62E
Ltmp1425:
	movb	%al, -467(%rbp)
	jmp	LBB139_9
LBB139_9:
	.loc	17 0 27 is_stmt 0
	movb	-467(%rbp), %al
	.loc	17 1821 20
	andb	$1, %al
	movb	%al, -1(%rbp)
	testb	$1, -1(%rbp)
	jne	LBB139_13
	jmp	LBB139_12
Ltmp1454:
LBB139_10:
	.loc	17 0 20
	movq	-440(%rbp), %rax
	.loc	17 1830 33 is_stmt 1
	movq	8(%rax), %rax
	movq	%rax, -32(%rbp)
Ltmp1455:
	.loc	17 171 9
	movq	-264(%rbp), %rcx
	addq	$16, %rcx
	movq	%rcx, -264(%rbp)
	.loc	17 172 21
	movq	-264(%rbp), %rcx
	.loc	17 172 9 is_stmt 0
	addq	-272(%rbp), %rcx
	movq	%rcx, -272(%rbp)
	.loc	17 173 9 is_stmt 1
	andq	-272(%rbp), %rax
	movq	%rax, -272(%rbp)
Ltmp1456:
	.loc	17 1801 9
	jmp	LBB139_1
LBB139_11:
Ltmp1457:
	.loc	17 1827 24
	movq	$0, -288(%rbp)
	.loc	61 1 1
	jmp	LBB139_14
LBB139_12:
Ltmp1458:
	.loc	17 1816 13
	jmp	LBB139_4
LBB139_13:
	.loc	17 0 13 is_stmt 0
	movq	-480(%rbp), %rax
Ltmp1459:
	.loc	17 1822 28 is_stmt 1
	movq	%rax, -280(%rbp)
	movq	$1, -288(%rbp)
Ltmp1460:
LBB139_14:
	.loc	17 1832 6
	movq	-288(%rbp), %rax
	movq	%rax, -496(%rbp)
	movq	-280(%rbp), %rax
	movq	%rax, -488(%rbp)
	jmp	LBB139_17
Ltmp1461:
LBB139_15:
	.loc	17 1294 5
	movq	-336(%rbp), %rdi
	callq	__Unwind_Resume
LBB139_16:
Ltmp1430:
	.loc	17 0 5 is_stmt 0
	movq	%rax, %rcx
	movl	%edx, %eax
	movq	%rcx, -336(%rbp)
	movl	%eax, -328(%rbp)
	jmp	LBB139_15
LBB139_17:
	movq	-488(%rbp), %rax
	movq	-496(%rbp), %rcx
	.loc	17 1295 22 is_stmt 1
	movq	%rcx, -392(%rbp)
	movq	%rax, -384(%rbp)
Ltmp1462:
	.loc	17 1300 9
	cmpq	$0, -392(%rbp)
	jne	LBB139_19
	.loc	17 1302 21
	movq	$0, -400(%rbp)
	jmp	LBB139_20
LBB139_19:
	.loc	17 0 21 is_stmt 0
	movq	-440(%rbp), %rax
	.loc	17 1301 18 is_stmt 1
	movq	-384(%rbp), %rsi
	movq	%rsi, -320(%rbp)
Ltmp1463:
	.loc	17 921 32
	movq	(%rax), %rax
	movq	%rax, -312(%rbp)
Ltmp1464:
	.loc	23 326 9
	movq	%rax, -304(%rbp)
Ltmp1465:
	.loc	5 61 9
	movq	%rax, -296(%rbp)
Ltmp1466:
	.loc	23 201 13
	movq	%rax, -360(%rbp)
Ltmp1467:
	.loc	17 955 9
	movq	-360(%rbp), %rdi
Ltmp1428:
	callq	__ZN9hashbrown3raw15Bucket$LT$T$GT$15from_base_index17hfca42c7a619dd7c4E
Ltmp1429:
	movq	%rax, -504(%rbp)
	jmp	LBB139_21
Ltmp1468:
LBB139_20:
	.loc	17 1304 6
	movq	-400(%rbp), %rax
	.loc	17 1304 6 epilogue_begin is_stmt 0
	addq	$512, %rsp
	popq	%rbp
	retq
LBB139_21:
	.loc	17 0 6
	movq	-504(%rbp), %rax
Ltmp1469:
	.loc	17 1301 28 is_stmt 1
	movq	%rax, -400(%rbp)
Ltmp1470:
	.loc	17 1301 62 is_stmt 0
	jmp	LBB139_20
Ltmp1471:
Lfunc_end139:
	.cfi_endproc
	.section	__TEXT,__gcc_except_tab
	.p2align	2, 0x0
GCC_except_table139:
Lexception32:
	.byte	255
	.byte	255
	.byte	1
	.uleb128 Lcst_end32-Lcst_begin32
Lcst_begin32:
	.uleb128 Ltmp1418-Lfunc_begin139
	.uleb128 Ltmp1425-Ltmp1418
	.uleb128 Ltmp1430-Lfunc_begin139
	.byte	0
	.uleb128 Ltmp1425-Lfunc_begin139
	.uleb128 Ltmp1428-Ltmp1425
	.byte	0
	.byte	0
	.uleb128 Ltmp1428-Lfunc_begin139
	.uleb128 Ltmp1429-Ltmp1428
	.uleb128 Ltmp1430-Lfunc_begin139
	.byte	0
Lcst_end32:
	.p2align	2, 0x0

	.section	__TEXT,__text,regular,pure_instructions
	.p2align	4, 0x90
__ZN9hashbrown3raw21RawTable$LT$T$C$A$GT$4find28_$u7b$$u7b$closure$u7d$$u7d$17hd5a6531ca539ed62E:
Lfunc_begin140:
	.loc	17 1295 0 is_stmt 1
	.cfi_startproc
	pushq	%rbp
	.cfi_def_cfa_offset 16
	.cfi_offset %rbp, -16
	movq	%rsp, %rbp
	.cfi_def_cfa_register %rbp
	subq	$144, %rsp
Ltmp1472:
	.loc	17 953 9 prologue_end
	leaq	L___unnamed_17(%rip), %rax
	movq	%rax, -128(%rbp)
Ltmp1473:
	.loc	17 953 9 is_stmt 0
	movb	$1, -113(%rbp)
Ltmp1474:
	.loc	5 1104 35 is_stmt 1
	movq	$1, -112(%rbp)
